
firmware_mini_proto\crypto_variant_O2.exe:     file format pei-x86-64


Disassembly of section .text:

0000000140001000 <__mingw_invalidParameterHandler>:
   140001000:	55                   	push   rbp
   140001001:	48 89 e5             	mov    rbp,rsp
   140001004:	48 89 4d 10          	mov    QWORD PTR [rbp+0x10],rcx
   140001008:	48 89 55 18          	mov    QWORD PTR [rbp+0x18],rdx
   14000100c:	4c 89 45 20          	mov    QWORD PTR [rbp+0x20],r8
   140001010:	44 89 4d 28          	mov    DWORD PTR [rbp+0x28],r9d
   140001014:	90                   	nop
   140001015:	5d                   	pop    rbp
   140001016:	c3                   	ret

0000000140001017 <WinMainCRTStartup>:
   140001017:	55                   	push   rbp
   140001018:	48 89 e5             	mov    rbp,rsp
   14000101b:	48 83 ec 30          	sub    rsp,0x30
   14000101f:	c7 45 fc ff 00 00 00 	mov    DWORD PTR [rbp-0x4],0xff

0000000140001026 <.l_startw>:
   140001026:	48 8b 05 d3 a5 00 00 	mov    rax,QWORD PTR [rip+0xa5d3]        # 14000b600 <.refptr.__mingw_app_type>
   14000102d:	c7 00 01 00 00 00    	mov    DWORD PTR [rax],0x1
   140001033:	e8 3d 00 00 00       	call   140001075 <__tmainCRTStartup>
   140001038:	89 45 fc             	mov    DWORD PTR [rbp-0x4],eax
   14000103b:	90                   	nop

000000014000103c <.l_endw>:
   14000103c:	90                   	nop
   14000103d:	8b 45 fc             	mov    eax,DWORD PTR [rbp-0x4]
   140001040:	48 83 c4 30          	add    rsp,0x30
   140001044:	5d                   	pop    rbp
   140001045:	c3                   	ret

0000000140001046 <mainCRTStartup>:
   140001046:	55                   	push   rbp
   140001047:	48 89 e5             	mov    rbp,rsp
   14000104a:	48 83 ec 30          	sub    rsp,0x30
   14000104e:	c7 45 fc ff 00 00 00 	mov    DWORD PTR [rbp-0x4],0xff

0000000140001055 <.l_start>:
   140001055:	48 8b 05 a4 a5 00 00 	mov    rax,QWORD PTR [rip+0xa5a4]        # 14000b600 <.refptr.__mingw_app_type>
   14000105c:	c7 00 00 00 00 00    	mov    DWORD PTR [rax],0x0
   140001062:	e8 0e 00 00 00       	call   140001075 <__tmainCRTStartup>
   140001067:	89 45 fc             	mov    DWORD PTR [rbp-0x4],eax
   14000106a:	90                   	nop

000000014000106b <.l_end>:
   14000106b:	90                   	nop
   14000106c:	8b 45 fc             	mov    eax,DWORD PTR [rbp-0x4]
   14000106f:	48 83 c4 30          	add    rsp,0x30
   140001073:	5d                   	pop    rbp
   140001074:	c3                   	ret

0000000140001075 <__tmainCRTStartup>:
   140001075:	55                   	push   rbp
   140001076:	48 89 e5             	mov    rbp,rsp
   140001079:	48 81 ec 90 00 00 00 	sub    rsp,0x90
   140001080:	48 c7 45 f0 00 00 00 	mov    QWORD PTR [rbp-0x10],0x0
   140001087:	00 
   140001088:	c7 45 e0 30 00 00 00 	mov    DWORD PTR [rbp-0x20],0x30
   14000108f:	8b 45 e0             	mov    eax,DWORD PTR [rbp-0x20]
   140001092:	65 67 48 8b 00       	mov    rax,QWORD PTR gs:[eax]
   140001097:	48 89 45 d8          	mov    QWORD PTR [rbp-0x28],rax
   14000109b:	48 8b 45 d8          	mov    rax,QWORD PTR [rbp-0x28]
   14000109f:	48 8b 40 08          	mov    rax,QWORD PTR [rax+0x8]
   1400010a3:	48 89 45 e8          	mov    QWORD PTR [rbp-0x18],rax
   1400010a7:	c7 45 fc 00 00 00 00 	mov    DWORD PTR [rbp-0x4],0x0
   1400010ae:	c7 45 e4 00 00 00 00 	mov    DWORD PTR [rbp-0x1c],0x0
   1400010b5:	eb 21                	jmp    1400010d8 <__tmainCRTStartup+0x63>
   1400010b7:	48 8b 45 f0          	mov    rax,QWORD PTR [rbp-0x10]
   1400010bb:	48 3b 45 e8          	cmp    rax,QWORD PTR [rbp-0x18]
   1400010bf:	75 09                	jne    1400010ca <__tmainCRTStartup+0x55>
   1400010c1:	c7 45 fc 01 00 00 00 	mov    DWORD PTR [rbp-0x4],0x1
   1400010c8:	eb 45                	jmp    14000110f <__tmainCRTStartup+0x9a>
   1400010ca:	b9 e8 03 00 00       	mov    ecx,0x3e8
   1400010cf:	48 8b 05 62 01 01 00 	mov    rax,QWORD PTR [rip+0x10162]        # 140011238 <__imp_Sleep>
   1400010d6:	ff d0                	call   rax
   1400010d8:	48 8b 05 71 a5 00 00 	mov    rax,QWORD PTR [rip+0xa571]        # 14000b650 <.refptr.__native_startup_lock>
   1400010df:	48 89 45 d0          	mov    QWORD PTR [rbp-0x30],rax
   1400010e3:	48 8b 45 e8          	mov    rax,QWORD PTR [rbp-0x18]
   1400010e7:	48 89 45 c8          	mov    QWORD PTR [rbp-0x38],rax
   1400010eb:	48 c7 45 c0 00 00 00 	mov    QWORD PTR [rbp-0x40],0x0
   1400010f2:	00 
   1400010f3:	48 8b 4d c8          	mov    rcx,QWORD PTR [rbp-0x38]
   1400010f7:	48 8b 45 c0          	mov    rax,QWORD PTR [rbp-0x40]
   1400010fb:	48 8b 55 d0          	mov    rdx,QWORD PTR [rbp-0x30]
   1400010ff:	f0 48 0f b1 0a       	lock cmpxchg QWORD PTR [rdx],rcx
   140001104:	48 89 45 f0          	mov    QWORD PTR [rbp-0x10],rax
   140001108:	48 83 7d f0 00       	cmp    QWORD PTR [rbp-0x10],0x0
   14000110d:	75 a8                	jne    1400010b7 <__tmainCRTStartup+0x42>
   14000110f:	48 8b 05 4a a5 00 00 	mov    rax,QWORD PTR [rip+0xa54a]        # 14000b660 <.refptr.__native_startup_state>
   140001116:	8b 00                	mov    eax,DWORD PTR [rax]
   140001118:	83 f8 01             	cmp    eax,0x1
   14000111b:	75 0a                	jne    140001127 <__tmainCRTStartup+0xb2>
   14000111d:	b9 1f 00 00 00       	mov    ecx,0x1f
   140001122:	e8 61 82 00 00       	call   140009388 <_amsg_exit>
   140001127:	48 8b 05 32 a5 00 00 	mov    rax,QWORD PTR [rip+0xa532]        # 14000b660 <.refptr.__native_startup_state>
   14000112e:	8b 00                	mov    eax,DWORD PTR [rax]
   140001130:	85 c0                	test   eax,eax
   140001132:	0f 85 a8 01 00 00    	jne    1400012e0 <__tmainCRTStartup+0x26b>
   140001138:	48 8b 05 21 a5 00 00 	mov    rax,QWORD PTR [rip+0xa521]        # 14000b660 <.refptr.__native_startup_state>
   14000113f:	c7 00 01 00 00 00    	mov    DWORD PTR [rax],0x1
   140001145:	e8 c6 10 00 00       	call   140002210 <_pei386_runtime_relocator>
   14000114a:	48 8b 05 9f a5 00 00 	mov    rax,QWORD PTR [rip+0xa59f]        # 14000b6f0 <.refptr._gnu_exception_handler>
   140001151:	48 89 c1             	mov    rcx,rax
   140001154:	48 8b 05 d5 00 01 00 	mov    rax,QWORD PTR [rip+0x100d5]        # 140011230 <__imp_SetUnhandledExceptionFilter>
   14000115b:	ff d0                	call   rax
   14000115d:	48 8b 15 dc a4 00 00 	mov    rdx,QWORD PTR [rip+0xa4dc]        # 14000b640 <.refptr.__mingw_oldexcpt_handler>
   140001164:	48 89 02             	mov    QWORD PTR [rdx],rax
   140001167:	48 8d 05 92 fe ff ff 	lea    rax,[rip+0xfffffffffffffe92]        # 140001000 <__mingw_invalidParameterHandler>
   14000116e:	48 89 c1             	mov    rcx,rax
   140001171:	e8 4a 81 00 00       	call   1400092c0 <_set_invalid_parameter_handler>
   140001176:	e8 65 17 00 00       	call   1400028e0 <_fpreset>
   14000117b:	e8 18 02 00 00       	call   140001398 <check_managed_app>
   140001180:	89 05 92 ee 00 00    	mov    DWORD PTR [rip+0xee92],eax        # 140010018 <managedapp>
   140001186:	48 8b 05 73 a4 00 00 	mov    rax,QWORD PTR [rip+0xa473]        # 14000b600 <.refptr.__mingw_app_type>
   14000118d:	8b 00                	mov    eax,DWORD PTR [rax]
   14000118f:	85 c0                	test   eax,eax
   140001191:	74 0c                	je     14000119f <__tmainCRTStartup+0x12a>
   140001193:	b9 02 00 00 00       	mov    ecx,0x2
   140001198:	e8 db 81 00 00       	call   140009378 <__set_app_type>
   14000119d:	eb 0a                	jmp    1400011a9 <__tmainCRTStartup+0x134>
   14000119f:	b9 01 00 00 00       	mov    ecx,0x1
   1400011a4:	e8 cf 81 00 00       	call   140009378 <__set_app_type>
   1400011a9:	e8 c2 7f 00 00       	call   140009170 <__p__fmode>
   1400011ae:	48 8b 15 2b a5 00 00 	mov    rdx,QWORD PTR [rip+0xa52b]        # 14000b6e0 <.refptr._fmode>
   1400011b5:	8b 12                	mov    edx,DWORD PTR [rdx]
   1400011b7:	89 10                	mov    DWORD PTR [rax],edx
   1400011b9:	e8 c2 7f 00 00       	call   140009180 <__p__commode>
   1400011be:	48 8b 15 fb a4 00 00 	mov    rdx,QWORD PTR [rip+0xa4fb]        # 14000b6c0 <.refptr._commode>
   1400011c5:	8b 12                	mov    edx,DWORD PTR [rdx]
   1400011c7:	89 10                	mov    DWORD PTR [rax],edx
   1400011c9:	e8 22 06 00 00       	call   1400017f0 <_setargv>
   1400011ce:	89 45 e4             	mov    DWORD PTR [rbp-0x1c],eax
   1400011d1:	83 7d e4 00          	cmp    DWORD PTR [rbp-0x1c],0x0
   1400011d5:	79 0a                	jns    1400011e1 <__tmainCRTStartup+0x16c>
   1400011d7:	b9 08 00 00 00       	mov    ecx,0x8
   1400011dc:	e8 a7 81 00 00       	call   140009388 <_amsg_exit>
   1400011e1:	48 8b 05 68 a3 00 00 	mov    rax,QWORD PTR [rip+0xa368]        # 14000b550 <.refptr._MINGW_INSTALL_DEBUG_MATHERR>
   1400011e8:	8b 00                	mov    eax,DWORD PTR [rax]
   1400011ea:	83 f8 01             	cmp    eax,0x1
   1400011ed:	75 0f                	jne    1400011fe <__tmainCRTStartup+0x189>
   1400011ef:	48 8b 05 0a a5 00 00 	mov    rax,QWORD PTR [rip+0xa50a]        # 14000b700 <.refptr._matherr>
   1400011f6:	48 89 c1             	mov    rcx,rax
   1400011f9:	e8 2c 11 00 00       	call   14000232a <__mingw_setusermatherr>
   1400011fe:	48 8b 05 bb a3 00 00 	mov    rax,QWORD PTR [rip+0xa3bb]        # 14000b5c0 <.refptr.__globallocalestatus>
   140001205:	8b 00                	mov    eax,DWORD PTR [rax]
   140001207:	83 f8 ff             	cmp    eax,0xffffffff
   14000120a:	75 0a                	jne    140001216 <__tmainCRTStartup+0x1a1>
   14000120c:	b9 ff ff ff ff       	mov    ecx,0xffffffff
   140001211:	e8 ea 80 00 00       	call   140009300 <_configthreadlocale>
   140001216:	48 8b 15 93 a4 00 00 	mov    rdx,QWORD PTR [rip+0xa493]        # 14000b6b0 <.refptr.__xi_z>
   14000121d:	48 8b 05 7c a4 00 00 	mov    rax,QWORD PTR [rip+0xa47c]        # 14000b6a0 <.refptr.__xi_a>
   140001224:	48 89 c1             	mov    rcx,rax
   140001227:	e8 e4 7e 00 00       	call   140009110 <_initterm_e>
   14000122c:	85 c0                	test   eax,eax
   14000122e:	74 0a                	je     14000123a <__tmainCRTStartup+0x1c5>
   140001230:	b8 ff 00 00 00       	mov    eax,0xff
   140001235:	e9 55 01 00 00       	jmp    14000138f <__tmainCRTStartup+0x31a>
   14000123a:	48 8b 05 cf a4 00 00 	mov    rax,QWORD PTR [rip+0xa4cf]        # 14000b710 <.refptr._newmode>
   140001241:	8b 00                	mov    eax,DWORD PTR [rax]
   140001243:	89 45 ac             	mov    DWORD PTR [rbp-0x54],eax
   140001246:	48 8b 05 83 a4 00 00 	mov    rax,QWORD PTR [rip+0xa483]        # 14000b6d0 <.refptr._dowildcard>
   14000124d:	44 8b 00             	mov    r8d,DWORD PTR [rax]
   140001250:	4c 8d 15 b9 ed 00 00 	lea    r10,[rip+0xedb9]        # 140010010 <envp>
   140001257:	48 8d 15 aa ed 00 00 	lea    rdx,[rip+0xedaa]        # 140010008 <argv>
   14000125e:	48 8d 05 9f ed 00 00 	lea    rax,[rip+0xed9f]        # 140010004 <argc>
   140001265:	48 8d 4d ac          	lea    rcx,[rbp-0x54]
   140001269:	48 89 4c 24 20       	mov    QWORD PTR [rsp+0x20],rcx
   14000126e:	45 89 c1             	mov    r9d,r8d
   140001271:	4d 89 d0             	mov    r8,r10
   140001274:	48 89 c1             	mov    rcx,rax
   140001277:	e8 ec 80 00 00       	call   140009368 <__getmainargs>
   14000127c:	89 45 e4             	mov    DWORD PTR [rbp-0x1c],eax
   14000127f:	83 7d e4 00          	cmp    DWORD PTR [rbp-0x1c],0x0
   140001283:	79 0a                	jns    14000128f <__tmainCRTStartup+0x21a>
   140001285:	b9 08 00 00 00       	mov    ecx,0x8
   14000128a:	e8 f9 80 00 00       	call   140009388 <_amsg_exit>
   14000128f:	8b 05 6f ed 00 00    	mov    eax,DWORD PTR [rip+0xed6f]        # 140010004 <argc>
   140001295:	48 8d 15 6c ed 00 00 	lea    rdx,[rip+0xed6c]        # 140010008 <argv>
   14000129c:	89 c1                	mov    ecx,eax
   14000129e:	e8 f9 01 00 00       	call   14000149c <duplicate_ppstrings>
   1400012a3:	89 45 e4             	mov    DWORD PTR [rbp-0x1c],eax
   1400012a6:	83 7d e4 00          	cmp    DWORD PTR [rbp-0x1c],0x0
   1400012aa:	74 0a                	je     1400012b6 <__tmainCRTStartup+0x241>
   1400012ac:	b9 08 00 00 00       	mov    ecx,0x8
   1400012b1:	e8 d2 80 00 00       	call   140009388 <_amsg_exit>
   1400012b6:	48 8b 15 d3 a3 00 00 	mov    rdx,QWORD PTR [rip+0xa3d3]        # 14000b690 <.refptr.__xc_z>
   1400012bd:	48 8b 05 bc a3 00 00 	mov    rax,QWORD PTR [rip+0xa3bc]        # 14000b680 <.refptr.__xc_a>
   1400012c4:	48 89 c1             	mov    rcx,rax
   1400012c7:	e8 d4 80 00 00       	call   1400093a0 <_initterm>
   1400012cc:	e8 f6 04 00 00       	call   1400017c7 <__main>
   1400012d1:	48 8b 05 88 a3 00 00 	mov    rax,QWORD PTR [rip+0xa388]        # 14000b660 <.refptr.__native_startup_state>
   1400012d8:	c7 00 02 00 00 00    	mov    DWORD PTR [rax],0x2
   1400012de:	eb 0a                	jmp    1400012ea <__tmainCRTStartup+0x275>
   1400012e0:	c7 05 32 ed 00 00 01 	mov    DWORD PTR [rip+0xed32],0x1        # 14001001c <has_cctor>
   1400012e7:	00 00 00 
   1400012ea:	83 7d fc 00          	cmp    DWORD PTR [rbp-0x4],0x0
   1400012ee:	75 1e                	jne    14000130e <__tmainCRTStartup+0x299>
   1400012f0:	48 8b 05 59 a3 00 00 	mov    rax,QWORD PTR [rip+0xa359]        # 14000b650 <.refptr.__native_startup_lock>
   1400012f7:	48 89 45 b8          	mov    QWORD PTR [rbp-0x48],rax
   1400012fb:	48 c7 45 b0 00 00 00 	mov    QWORD PTR [rbp-0x50],0x0
   140001302:	00 
   140001303:	48 8b 55 b0          	mov    rdx,QWORD PTR [rbp-0x50]
   140001307:	48 8b 45 b8          	mov    rax,QWORD PTR [rbp-0x48]
   14000130b:	48 87 10             	xchg   QWORD PTR [rax],rdx
   14000130e:	48 8b 05 9b a2 00 00 	mov    rax,QWORD PTR [rip+0xa29b]        # 14000b5b0 <.refptr.__dyn_tls_init_callback>
   140001315:	48 8b 00             	mov    rax,QWORD PTR [rax]
   140001318:	48 85 c0             	test   rax,rax
   14000131b:	74 1c                	je     140001339 <__tmainCRTStartup+0x2c4>
   14000131d:	48 8b 05 8c a2 00 00 	mov    rax,QWORD PTR [rip+0xa28c]        # 14000b5b0 <.refptr.__dyn_tls_init_callback>
   140001324:	48 8b 00             	mov    rax,QWORD PTR [rax]
   140001327:	41 b8 00 00 00 00    	mov    r8d,0x0
   14000132d:	ba 02 00 00 00       	mov    edx,0x2
   140001332:	b9 00 00 00 00       	mov    ecx,0x0
   140001337:	ff d0                	call   rax
   140001339:	e8 52 7e 00 00       	call   140009190 <__p___initenv>
   14000133e:	48 8b 15 cb ec 00 00 	mov    rdx,QWORD PTR [rip+0xeccb]        # 140010010 <envp>
   140001345:	48 89 10             	mov    QWORD PTR [rax],rdx
   140001348:	48 8b 0d c1 ec 00 00 	mov    rcx,QWORD PTR [rip+0xecc1]        # 140010010 <envp>
   14000134f:	48 8b 15 b2 ec 00 00 	mov    rdx,QWORD PTR [rip+0xecb2]        # 140010008 <argv>
   140001356:	8b 05 a8 ec 00 00    	mov    eax,DWORD PTR [rip+0xeca8]        # 140010004 <argc>
   14000135c:	49 89 c8             	mov    r8,rcx
   14000135f:	89 c1                	mov    ecx,eax
   140001361:	e8 9a 81 00 00       	call   140009500 <main>
   140001366:	89 45 e4             	mov    DWORD PTR [rbp-0x1c],eax
   140001369:	8b 05 a9 ec 00 00    	mov    eax,DWORD PTR [rip+0xeca9]        # 140010018 <managedapp>
   14000136f:	85 c0                	test   eax,eax
   140001371:	75 0a                	jne    14000137d <__tmainCRTStartup+0x308>
   140001373:	8b 45 e4             	mov    eax,DWORD PTR [rbp-0x1c]
   140001376:	89 c1                	mov    ecx,eax
   140001378:	e8 53 80 00 00       	call   1400093d0 <exit>
   14000137d:	8b 05 99 ec 00 00    	mov    eax,DWORD PTR [rip+0xec99]        # 14001001c <has_cctor>
   140001383:	85 c0                	test   eax,eax
   140001385:	75 05                	jne    14000138c <__tmainCRTStartup+0x317>
   140001387:	e8 04 80 00 00       	call   140009390 <_cexit>
   14000138c:	8b 45 e4             	mov    eax,DWORD PTR [rbp-0x1c]
   14000138f:	48 81 c4 90 00 00 00 	add    rsp,0x90
   140001396:	5d                   	pop    rbp
   140001397:	c3                   	ret

0000000140001398 <check_managed_app>:
   140001398:	55                   	push   rbp
   140001399:	48 89 e5             	mov    rbp,rsp
   14000139c:	48 83 ec 20          	sub    rsp,0x20
   1400013a0:	48 8b 05 69 a2 00 00 	mov    rax,QWORD PTR [rip+0xa269]        # 14000b610 <.refptr.__mingw_initltsdrot_force>
   1400013a7:	c7 00 01 00 00 00    	mov    DWORD PTR [rax],0x1
   1400013ad:	48 8b 05 6c a2 00 00 	mov    rax,QWORD PTR [rip+0xa26c]        # 14000b620 <.refptr.__mingw_initltsdyn_force>
   1400013b4:	c7 00 01 00 00 00    	mov    DWORD PTR [rax],0x1
   1400013ba:	48 8b 05 6f a2 00 00 	mov    rax,QWORD PTR [rip+0xa26f]        # 14000b630 <.refptr.__mingw_initltssuo_force>
   1400013c1:	c7 00 01 00 00 00    	mov    DWORD PTR [rax],0x1
   1400013c7:	48 8b 05 a2 a1 00 00 	mov    rax,QWORD PTR [rip+0xa1a2]        # 14000b570 <.refptr.__ImageBase>
   1400013ce:	48 89 45 f8          	mov    QWORD PTR [rbp-0x8],rax
   1400013d2:	48 8b 45 f8          	mov    rax,QWORD PTR [rbp-0x8]
   1400013d6:	0f b7 00             	movzx  eax,WORD PTR [rax]
   1400013d9:	66 3d 4d 5a          	cmp    ax,0x5a4d
   1400013dd:	74 0a                	je     1400013e9 <check_managed_app+0x51>
   1400013df:	b8 00 00 00 00       	mov    eax,0x0
   1400013e4:	e9 ad 00 00 00       	jmp    140001496 <check_managed_app+0xfe>
   1400013e9:	48 8b 45 f8          	mov    rax,QWORD PTR [rbp-0x8]
   1400013ed:	8b 40 3c             	mov    eax,DWORD PTR [rax+0x3c]
   1400013f0:	48 63 d0             	movsxd rdx,eax
   1400013f3:	48 8b 45 f8          	mov    rax,QWORD PTR [rbp-0x8]
   1400013f7:	48 01 d0             	add    rax,rdx
   1400013fa:	48 89 45 f0          	mov    QWORD PTR [rbp-0x10],rax
   1400013fe:	48 8b 45 f0          	mov    rax,QWORD PTR [rbp-0x10]
   140001402:	8b 00                	mov    eax,DWORD PTR [rax]
   140001404:	3d 50 45 00 00       	cmp    eax,0x4550
   140001409:	74 0a                	je     140001415 <check_managed_app+0x7d>
   14000140b:	b8 00 00 00 00       	mov    eax,0x0
   140001410:	e9 81 00 00 00       	jmp    140001496 <check_managed_app+0xfe>
   140001415:	48 8b 45 f0          	mov    rax,QWORD PTR [rbp-0x10]
   140001419:	48 83 c0 18          	add    rax,0x18
   14000141d:	48 89 45 e8          	mov    QWORD PTR [rbp-0x18],rax
   140001421:	48 8b 45 e8          	mov    rax,QWORD PTR [rbp-0x18]
   140001425:	0f b7 00             	movzx  eax,WORD PTR [rax]
   140001428:	0f b7 c0             	movzx  eax,ax
   14000142b:	3d 0b 01 00 00       	cmp    eax,0x10b
   140001430:	74 09                	je     14000143b <check_managed_app+0xa3>
   140001432:	3d 0b 02 00 00       	cmp    eax,0x20b
   140001437:	74 29                	je     140001462 <check_managed_app+0xca>
   140001439:	eb 56                	jmp    140001491 <check_managed_app+0xf9>
   14000143b:	48 8b 45 e8          	mov    rax,QWORD PTR [rbp-0x18]
   14000143f:	8b 40 5c             	mov    eax,DWORD PTR [rax+0x5c]
   140001442:	83 f8 0e             	cmp    eax,0xe
   140001445:	77 07                	ja     14000144e <check_managed_app+0xb6>
   140001447:	b8 00 00 00 00       	mov    eax,0x0
   14000144c:	eb 48                	jmp    140001496 <check_managed_app+0xfe>
   14000144e:	48 8b 45 e8          	mov    rax,QWORD PTR [rbp-0x18]
   140001452:	8b 80 d0 00 00 00    	mov    eax,DWORD PTR [rax+0xd0]
   140001458:	85 c0                	test   eax,eax
   14000145a:	0f 95 c0             	setne  al
   14000145d:	0f b6 c0             	movzx  eax,al
   140001460:	eb 34                	jmp    140001496 <check_managed_app+0xfe>
   140001462:	48 8b 45 e8          	mov    rax,QWORD PTR [rbp-0x18]
   140001466:	48 89 45 e0          	mov    QWORD PTR [rbp-0x20],rax
   14000146a:	48 8b 45 e0          	mov    rax,QWORD PTR [rbp-0x20]
   14000146e:	8b 40 6c             	mov    eax,DWORD PTR [rax+0x6c]
   140001471:	83 f8 0e             	cmp    eax,0xe
   140001474:	77 07                	ja     14000147d <check_managed_app+0xe5>
   140001476:	b8 00 00 00 00       	mov    eax,0x0
   14000147b:	eb 19                	jmp    140001496 <check_managed_app+0xfe>
   14000147d:	48 8b 45 e0          	mov    rax,QWORD PTR [rbp-0x20]
   140001481:	8b 80 e0 00 00 00    	mov    eax,DWORD PTR [rax+0xe0]
   140001487:	85 c0                	test   eax,eax
   140001489:	0f 95 c0             	setne  al
   14000148c:	0f b6 c0             	movzx  eax,al
   14000148f:	eb 05                	jmp    140001496 <check_managed_app+0xfe>
   140001491:	b8 00 00 00 00       	mov    eax,0x0
   140001496:	48 83 c4 20          	add    rsp,0x20
   14000149a:	5d                   	pop    rbp
   14000149b:	c3                   	ret

000000014000149c <duplicate_ppstrings>:
   14000149c:	55                   	push   rbp
   14000149d:	53                   	push   rbx
   14000149e:	48 83 ec 48          	sub    rsp,0x48
   1400014a2:	48 8d 6c 24 40       	lea    rbp,[rsp+0x40]
   1400014a7:	89 4d 20             	mov    DWORD PTR [rbp+0x20],ecx
   1400014aa:	48 89 55 28          	mov    QWORD PTR [rbp+0x28],rdx
   1400014ae:	8b 45 20             	mov    eax,DWORD PTR [rbp+0x20]
   1400014b1:	83 c0 01             	add    eax,0x1
   1400014b4:	48 98                	cdqe
   1400014b6:	48 c1 e0 03          	shl    rax,0x3
   1400014ba:	48 89 c1             	mov    rcx,rax
   1400014bd:	e8 36 7f 00 00       	call   1400093f8 <malloc>
   1400014c2:	48 89 45 f0          	mov    QWORD PTR [rbp-0x10],rax
   1400014c6:	48 83 7d f0 00       	cmp    QWORD PTR [rbp-0x10],0x0
   1400014cb:	75 0a                	jne    1400014d7 <duplicate_ppstrings+0x3b>
   1400014cd:	b8 01 00 00 00       	mov    eax,0x1
   1400014d2:	e9 fd 00 00 00       	jmp    1400015d4 <duplicate_ppstrings+0x138>
   1400014d7:	48 8b 45 28          	mov    rax,QWORD PTR [rbp+0x28]
   1400014db:	48 8b 00             	mov    rax,QWORD PTR [rax]
   1400014de:	48 89 45 e8          	mov    QWORD PTR [rbp-0x18],rax
   1400014e2:	c7 45 fc 00 00 00 00 	mov    DWORD PTR [rbp-0x4],0x0
   1400014e9:	e9 af 00 00 00       	jmp    14000159d <duplicate_ppstrings+0x101>
   1400014ee:	8b 45 fc             	mov    eax,DWORD PTR [rbp-0x4]
   1400014f1:	48 98                	cdqe
   1400014f3:	48 8d 14 c5 00 00 00 	lea    rdx,[rax*8+0x0]
   1400014fa:	00 
   1400014fb:	48 8b 45 e8          	mov    rax,QWORD PTR [rbp-0x18]
   1400014ff:	48 01 d0             	add    rax,rdx
   140001502:	48 8b 00             	mov    rax,QWORD PTR [rax]
   140001505:	48 89 c1             	mov    rcx,rax
   140001508:	e8 0b 7f 00 00       	call   140009418 <strlen>
   14000150d:	48 83 c0 01          	add    rax,0x1
   140001511:	48 89 45 e0          	mov    QWORD PTR [rbp-0x20],rax
   140001515:	8b 45 fc             	mov    eax,DWORD PTR [rbp-0x4]
   140001518:	48 98                	cdqe
   14000151a:	48 8d 14 c5 00 00 00 	lea    rdx,[rax*8+0x0]
   140001521:	00 
   140001522:	48 8b 45 f0          	mov    rax,QWORD PTR [rbp-0x10]
   140001526:	48 8d 1c 02          	lea    rbx,[rdx+rax*1]
   14000152a:	48 8b 45 e0          	mov    rax,QWORD PTR [rbp-0x20]
   14000152e:	48 89 c1             	mov    rcx,rax
   140001531:	e8 c2 7e 00 00       	call   1400093f8 <malloc>
   140001536:	48 89 03             	mov    QWORD PTR [rbx],rax
   140001539:	8b 45 fc             	mov    eax,DWORD PTR [rbp-0x4]
   14000153c:	48 98                	cdqe
   14000153e:	48 8d 14 c5 00 00 00 	lea    rdx,[rax*8+0x0]
   140001545:	00 
   140001546:	48 8b 45 f0          	mov    rax,QWORD PTR [rbp-0x10]
   14000154a:	48 01 d0             	add    rax,rdx
   14000154d:	48 8b 00             	mov    rax,QWORD PTR [rax]
   140001550:	48 85 c0             	test   rax,rax
   140001553:	75 07                	jne    14000155c <duplicate_ppstrings+0xc0>
   140001555:	b8 01 00 00 00       	mov    eax,0x1
   14000155a:	eb 78                	jmp    1400015d4 <duplicate_ppstrings+0x138>
   14000155c:	8b 45 fc             	mov    eax,DWORD PTR [rbp-0x4]
   14000155f:	48 98                	cdqe
   140001561:	48 8d 14 c5 00 00 00 	lea    rdx,[rax*8+0x0]
   140001568:	00 
   140001569:	48 8b 45 e8          	mov    rax,QWORD PTR [rbp-0x18]
   14000156d:	48 01 d0             	add    rax,rdx
   140001570:	48 8b 10             	mov    rdx,QWORD PTR [rax]
   140001573:	8b 45 fc             	mov    eax,DWORD PTR [rbp-0x4]
   140001576:	48 98                	cdqe
   140001578:	48 8d 0c c5 00 00 00 	lea    rcx,[rax*8+0x0]
   14000157f:	00 
   140001580:	48 8b 45 f0          	mov    rax,QWORD PTR [rbp-0x10]
   140001584:	48 01 c8             	add    rax,rcx
   140001587:	48 8b 00             	mov    rax,QWORD PTR [rax]
   14000158a:	48 8b 4d e0          	mov    rcx,QWORD PTR [rbp-0x20]
   14000158e:	49 89 c8             	mov    r8,rcx
   140001591:	48 89 c1             	mov    rcx,rax
   140001594:	e8 67 7e 00 00       	call   140009400 <memcpy>
   140001599:	83 45 fc 01          	add    DWORD PTR [rbp-0x4],0x1
   14000159d:	8b 45 fc             	mov    eax,DWORD PTR [rbp-0x4]
   1400015a0:	3b 45 20             	cmp    eax,DWORD PTR [rbp+0x20]
   1400015a3:	0f 8c 45 ff ff ff    	jl     1400014ee <duplicate_ppstrings+0x52>
   1400015a9:	8b 45 fc             	mov    eax,DWORD PTR [rbp-0x4]
   1400015ac:	48 98                	cdqe
   1400015ae:	48 8d 14 c5 00 00 00 	lea    rdx,[rax*8+0x0]
   1400015b5:	00 
   1400015b6:	48 8b 45 f0          	mov    rax,QWORD PTR [rbp-0x10]
   1400015ba:	48 01 d0             	add    rax,rdx
   1400015bd:	48 c7 00 00 00 00 00 	mov    QWORD PTR [rax],0x0
   1400015c4:	48 8b 45 28          	mov    rax,QWORD PTR [rbp+0x28]
   1400015c8:	48 8b 55 f0          	mov    rdx,QWORD PTR [rbp-0x10]
   1400015cc:	48 89 10             	mov    QWORD PTR [rax],rdx
   1400015cf:	b8 00 00 00 00       	mov    eax,0x0
   1400015d4:	48 83 c4 48          	add    rsp,0x48
   1400015d8:	5b                   	pop    rbx
   1400015d9:	5d                   	pop    rbp
   1400015da:	c3                   	ret

00000001400015db <atexit>:
   1400015db:	55                   	push   rbp
   1400015dc:	48 89 e5             	mov    rbp,rsp
   1400015df:	48 83 ec 20          	sub    rsp,0x20
   1400015e3:	48 89 4d 10          	mov    QWORD PTR [rbp+0x10],rcx
   1400015e7:	48 8b 45 10          	mov    rax,QWORD PTR [rbp+0x10]
   1400015eb:	48 89 c1             	mov    rcx,rax
   1400015ee:	e8 cd 7d 00 00       	call   1400093c0 <_crt_atexit>
   1400015f3:	48 83 c4 20          	add    rsp,0x20
   1400015f7:	5d                   	pop    rbp
   1400015f8:	c3                   	ret
   1400015f9:	90                   	nop
   1400015fa:	90                   	nop
   1400015fb:	90                   	nop
   1400015fc:	90                   	nop
   1400015fd:	90                   	nop
   1400015fe:	90                   	nop
   1400015ff:	90                   	nop

0000000140001600 <.weak.__register_frame_info.hmod_libgcc>:
   140001600:	c3                   	ret
   140001601:	0f 1f 40 00          	nop    DWORD PTR [rax+0x0]
   140001605:	66 66 2e 0f 1f 84 00 	data16 cs nop WORD PTR [rax+rax*1+0x0]
   14000160c:	00 00 00 00 

0000000140001610 <.weak.__deregister_frame_info.hmod_libgcc>:
   140001610:	31 c0                	xor    eax,eax
   140001612:	c3                   	ret
   140001613:	66 90                	xchg   ax,ax
   140001615:	66 66 2e 0f 1f 84 00 	data16 cs nop WORD PTR [rax+rax*1+0x0]
   14000161c:	00 00 00 00 

0000000140001620 <__gcc_register_frame>:
   140001620:	55                   	push   rbp
   140001621:	53                   	push   rbx
   140001622:	48 83 ec 38          	sub    rsp,0x38
   140001626:	48 8d 6c 24 30       	lea    rbp,[rsp+0x30]
   14000162b:	48 8d 0d ce 99 00 00 	lea    rcx,[rip+0x99ce]        # 14000b000 <.rdata>
   140001632:	ff 15 c0 fb 00 00    	call   QWORD PTR [rip+0xfbc0]        # 1400111f8 <__imp_GetModuleHandleA>
   140001638:	48 89 c3             	mov    rbx,rax
   14000163b:	48 85 c0             	test   rax,rax
   14000163e:	74 70                	je     1400016b0 <__gcc_register_frame+0x90>
   140001640:	48 8d 0d b9 99 00 00 	lea    rcx,[rip+0x99b9]        # 14000b000 <.rdata>
   140001647:	ff 15 d3 fb 00 00    	call   QWORD PTR [rip+0xfbd3]        # 140011220 <__imp_LoadLibraryA>
   14000164d:	4c 8b 0d ac fb 00 00 	mov    r9,QWORD PTR [rip+0xfbac]        # 140011200 <__imp_GetProcAddress>
   140001654:	48 8d 15 b8 99 00 00 	lea    rdx,[rip+0x99b8]        # 14000b013 <.rdata+0x13>
   14000165b:	48 89 d9             	mov    rcx,rbx
   14000165e:	48 89 05 bb e9 00 00 	mov    QWORD PTR [rip+0xe9bb],rax        # 140010020 <hmod_libgcc>
   140001665:	4c 89 4d f0          	mov    QWORD PTR [rbp-0x10],r9
   140001669:	41 ff d1             	call   r9
   14000166c:	48 8d 15 b6 99 00 00 	lea    rdx,[rip+0x99b6]        # 14000b029 <.rdata+0x29>
   140001673:	48 89 d9             	mov    rcx,rbx
   140001676:	48 89 45 f8          	mov    QWORD PTR [rbp-0x8],rax
   14000167a:	ff 55 f0             	call   QWORD PTR [rbp-0x10]
   14000167d:	4c 8b 45 f8          	mov    r8,QWORD PTR [rbp-0x8]
   140001681:	48 89 05 78 89 00 00 	mov    QWORD PTR [rip+0x8978],rax        # 14000a000 <__data_start__>
   140001688:	4d 85 c0             	test   r8,r8
   14000168b:	74 11                	je     14000169e <__gcc_register_frame+0x7e>
   14000168d:	48 8d 15 ac e9 00 00 	lea    rdx,[rip+0xe9ac]        # 140010040 <obj>
   140001694:	48 8d 0d 65 b9 00 00 	lea    rcx,[rip+0xb965]        # 14000d000 <__EH_FRAME_BEGIN__>
   14000169b:	41 ff d0             	call   r8
   14000169e:	48 8d 0d 2b 00 00 00 	lea    rcx,[rip+0x2b]        # 1400016d0 <__gcc_deregister_frame>
   1400016a5:	48 83 c4 38          	add    rsp,0x38
   1400016a9:	5b                   	pop    rbx
   1400016aa:	5d                   	pop    rbp
   1400016ab:	e9 2b ff ff ff       	jmp    1400015db <atexit>
   1400016b0:	48 8d 05 59 ff ff ff 	lea    rax,[rip+0xffffffffffffff59]        # 140001610 <.weak.__deregister_frame_info.hmod_libgcc>
   1400016b7:	4c 8d 05 42 ff ff ff 	lea    r8,[rip+0xffffffffffffff42]        # 140001600 <.weak.__register_frame_info.hmod_libgcc>
   1400016be:	48 89 05 3b 89 00 00 	mov    QWORD PTR [rip+0x893b],rax        # 14000a000 <__data_start__>
   1400016c5:	eb c6                	jmp    14000168d <__gcc_register_frame+0x6d>
   1400016c7:	66 0f 1f 84 00 00 00 	nop    WORD PTR [rax+rax*1+0x0]
   1400016ce:	00 00 

00000001400016d0 <__gcc_deregister_frame>:
   1400016d0:	55                   	push   rbp
   1400016d1:	48 89 e5             	mov    rbp,rsp
   1400016d4:	48 83 ec 20          	sub    rsp,0x20
   1400016d8:	48 8b 05 21 89 00 00 	mov    rax,QWORD PTR [rip+0x8921]        # 14000a000 <__data_start__>
   1400016df:	48 85 c0             	test   rax,rax
   1400016e2:	74 09                	je     1400016ed <__gcc_deregister_frame+0x1d>
   1400016e4:	48 8d 0d 15 b9 00 00 	lea    rcx,[rip+0xb915]        # 14000d000 <__EH_FRAME_BEGIN__>
   1400016eb:	ff d0                	call   rax
   1400016ed:	48 8b 0d 2c e9 00 00 	mov    rcx,QWORD PTR [rip+0xe92c]        # 140010020 <hmod_libgcc>
   1400016f4:	48 85 c9             	test   rcx,rcx
   1400016f7:	74 0f                	je     140001708 <__gcc_deregister_frame+0x38>
   1400016f9:	48 83 c4 20          	add    rsp,0x20
   1400016fd:	5d                   	pop    rbp
   1400016fe:	48 ff 25 e3 fa 00 00 	rex.W jmp QWORD PTR [rip+0xfae3]        # 1400111e8 <__imp_FreeLibrary>
   140001705:	0f 1f 00             	nop    DWORD PTR [rax]
   140001708:	48 83 c4 20          	add    rsp,0x20
   14000170c:	5d                   	pop    rbp
   14000170d:	c3                   	ret
   14000170e:	90                   	nop
   14000170f:	90                   	nop

0000000140001710 <__do_global_dtors>:
   140001710:	55                   	push   rbp
   140001711:	48 89 e5             	mov    rbp,rsp
   140001714:	48 83 ec 20          	sub    rsp,0x20
   140001718:	eb 1e                	jmp    140001738 <__do_global_dtors+0x28>
   14000171a:	48 8b 05 ef 88 00 00 	mov    rax,QWORD PTR [rip+0x88ef]        # 14000a010 <p.0>
   140001721:	48 8b 00             	mov    rax,QWORD PTR [rax]
   140001724:	ff d0                	call   rax
   140001726:	48 8b 05 e3 88 00 00 	mov    rax,QWORD PTR [rip+0x88e3]        # 14000a010 <p.0>
   14000172d:	48 83 c0 08          	add    rax,0x8
   140001731:	48 89 05 d8 88 00 00 	mov    QWORD PTR [rip+0x88d8],rax        # 14000a010 <p.0>
   140001738:	48 8b 05 d1 88 00 00 	mov    rax,QWORD PTR [rip+0x88d1]        # 14000a010 <p.0>
   14000173f:	48 8b 00             	mov    rax,QWORD PTR [rax]
   140001742:	48 85 c0             	test   rax,rax
   140001745:	75 d3                	jne    14000171a <__do_global_dtors+0xa>
   140001747:	90                   	nop
   140001748:	90                   	nop
   140001749:	48 83 c4 20          	add    rsp,0x20
   14000174d:	5d                   	pop    rbp
   14000174e:	c3                   	ret

000000014000174f <__do_global_ctors>:
   14000174f:	55                   	push   rbp
   140001750:	48 89 e5             	mov    rbp,rsp
   140001753:	48 83 ec 30          	sub    rsp,0x30
   140001757:	48 8b 05 02 9e 00 00 	mov    rax,QWORD PTR [rip+0x9e02]        # 14000b560 <.refptr.__CTOR_LIST__>
   14000175e:	48 8b 00             	mov    rax,QWORD PTR [rax]
   140001761:	89 45 fc             	mov    DWORD PTR [rbp-0x4],eax
   140001764:	83 7d fc ff          	cmp    DWORD PTR [rbp-0x4],0xffffffff
   140001768:	75 25                	jne    14000178f <__do_global_ctors+0x40>
   14000176a:	c7 45 fc 00 00 00 00 	mov    DWORD PTR [rbp-0x4],0x0
   140001771:	eb 04                	jmp    140001777 <__do_global_ctors+0x28>
   140001773:	83 45 fc 01          	add    DWORD PTR [rbp-0x4],0x1
   140001777:	8b 45 fc             	mov    eax,DWORD PTR [rbp-0x4]
   14000177a:	8d 50 01             	lea    edx,[rax+0x1]
   14000177d:	48 8b 05 dc 9d 00 00 	mov    rax,QWORD PTR [rip+0x9ddc]        # 14000b560 <.refptr.__CTOR_LIST__>
   140001784:	89 d2                	mov    edx,edx
   140001786:	48 8b 04 d0          	mov    rax,QWORD PTR [rax+rdx*8]
   14000178a:	48 85 c0             	test   rax,rax
   14000178d:	75 e4                	jne    140001773 <__do_global_ctors+0x24>
   14000178f:	8b 45 fc             	mov    eax,DWORD PTR [rbp-0x4]
   140001792:	89 45 f8             	mov    DWORD PTR [rbp-0x8],eax
   140001795:	eb 14                	jmp    1400017ab <__do_global_ctors+0x5c>
   140001797:	48 8b 05 c2 9d 00 00 	mov    rax,QWORD PTR [rip+0x9dc2]        # 14000b560 <.refptr.__CTOR_LIST__>
   14000179e:	8b 55 f8             	mov    edx,DWORD PTR [rbp-0x8]
   1400017a1:	48 8b 04 d0          	mov    rax,QWORD PTR [rax+rdx*8]
   1400017a5:	ff d0                	call   rax
   1400017a7:	83 6d f8 01          	sub    DWORD PTR [rbp-0x8],0x1
   1400017ab:	83 7d f8 00          	cmp    DWORD PTR [rbp-0x8],0x0
   1400017af:	75 e6                	jne    140001797 <__do_global_ctors+0x48>
   1400017b1:	48 8d 05 58 ff ff ff 	lea    rax,[rip+0xffffffffffffff58]        # 140001710 <__do_global_dtors>
   1400017b8:	48 89 c1             	mov    rcx,rax
   1400017bb:	e8 1b fe ff ff       	call   1400015db <atexit>
   1400017c0:	90                   	nop
   1400017c1:	48 83 c4 30          	add    rsp,0x30
   1400017c5:	5d                   	pop    rbp
   1400017c6:	c3                   	ret

00000001400017c7 <__main>:
   1400017c7:	55                   	push   rbp
   1400017c8:	48 89 e5             	mov    rbp,rsp
   1400017cb:	48 83 ec 20          	sub    rsp,0x20
   1400017cf:	8b 05 ab e8 00 00    	mov    eax,DWORD PTR [rip+0xe8ab]        # 140010080 <initialized>
   1400017d5:	85 c0                	test   eax,eax
   1400017d7:	75 0f                	jne    1400017e8 <__main+0x21>
   1400017d9:	c7 05 9d e8 00 00 01 	mov    DWORD PTR [rip+0xe89d],0x1        # 140010080 <initialized>
   1400017e0:	00 00 00 
   1400017e3:	e8 67 ff ff ff       	call   14000174f <__do_global_ctors>
   1400017e8:	90                   	nop
   1400017e9:	48 83 c4 20          	add    rsp,0x20
   1400017ed:	5d                   	pop    rbp
   1400017ee:	c3                   	ret
   1400017ef:	90                   	nop

00000001400017f0 <_setargv>:
   1400017f0:	55                   	push   rbp
   1400017f1:	48 89 e5             	mov    rbp,rsp
   1400017f4:	b8 00 00 00 00       	mov    eax,0x0
   1400017f9:	5d                   	pop    rbp
   1400017fa:	c3                   	ret
   1400017fb:	90                   	nop
   1400017fc:	90                   	nop
   1400017fd:	90                   	nop
   1400017fe:	90                   	nop
   1400017ff:	90                   	nop

0000000140001800 <__dyn_tls_init>:
   140001800:	55                   	push   rbp
   140001801:	48 89 e5             	mov    rbp,rsp
   140001804:	48 83 ec 30          	sub    rsp,0x30
   140001808:	48 89 4d 10          	mov    QWORD PTR [rbp+0x10],rcx
   14000180c:	89 55 18             	mov    DWORD PTR [rbp+0x18],edx
   14000180f:	4c 89 45 20          	mov    QWORD PTR [rbp+0x20],r8
   140001813:	48 8b 05 26 9d 00 00 	mov    rax,QWORD PTR [rip+0x9d26]        # 14000b540 <.refptr._CRT_MT>
   14000181a:	8b 00                	mov    eax,DWORD PTR [rax]
   14000181c:	83 f8 02             	cmp    eax,0x2
   14000181f:	74 0d                	je     14000182e <__dyn_tls_init+0x2e>
   140001821:	48 8b 05 18 9d 00 00 	mov    rax,QWORD PTR [rip+0x9d18]        # 14000b540 <.refptr._CRT_MT>
   140001828:	c7 00 02 00 00 00    	mov    DWORD PTR [rax],0x2
   14000182e:	83 7d 18 02          	cmp    DWORD PTR [rbp+0x18],0x2
   140001832:	74 1e                	je     140001852 <__dyn_tls_init+0x52>
   140001834:	83 7d 18 01          	cmp    DWORD PTR [rbp+0x18],0x1
   140001838:	75 5b                	jne    140001895 <__dyn_tls_init+0x95>
   14000183a:	48 8b 4d 20          	mov    rcx,QWORD PTR [rbp+0x20]
   14000183e:	8b 55 18             	mov    edx,DWORD PTR [rbp+0x18]
   140001841:	48 8b 45 10          	mov    rax,QWORD PTR [rbp+0x10]
   140001845:	49 89 c8             	mov    r8,rcx
   140001848:	48 89 c1             	mov    rcx,rax
   14000184b:	e8 91 0f 00 00       	call   1400027e1 <__mingw_TLScallback>
   140001850:	eb 43                	jmp    140001895 <__dyn_tls_init+0x95>
   140001852:	48 8d 05 2f ae 00 00 	lea    rax,[rip+0xae2f]        # 14000c688 <___crt_xd_start__>
   140001859:	48 89 45 f8          	mov    QWORD PTR [rbp-0x8],rax
   14000185d:	48 83 45 f8 08       	add    QWORD PTR [rbp-0x8],0x8
   140001862:	eb 22                	jmp    140001886 <__dyn_tls_init+0x86>
   140001864:	48 8b 45 f8          	mov    rax,QWORD PTR [rbp-0x8]
   140001868:	48 89 45 f0          	mov    QWORD PTR [rbp-0x10],rax
   14000186c:	48 8b 45 f0          	mov    rax,QWORD PTR [rbp-0x10]
   140001870:	48 8b 00             	mov    rax,QWORD PTR [rax]
   140001873:	48 85 c0             	test   rax,rax
   140001876:	74 09                	je     140001881 <__dyn_tls_init+0x81>
   140001878:	48 8b 45 f0          	mov    rax,QWORD PTR [rbp-0x10]
   14000187c:	48 8b 00             	mov    rax,QWORD PTR [rax]
   14000187f:	ff d0                	call   rax
   140001881:	48 83 45 f8 08       	add    QWORD PTR [rbp-0x8],0x8
   140001886:	48 8d 05 03 ae 00 00 	lea    rax,[rip+0xae03]        # 14000c690 <__xd_z>
   14000188d:	48 39 45 f8          	cmp    QWORD PTR [rbp-0x8],rax
   140001891:	75 d1                	jne    140001864 <__dyn_tls_init+0x64>
   140001893:	eb 01                	jmp    140001896 <__dyn_tls_init+0x96>
   140001895:	90                   	nop
   140001896:	48 83 c4 30          	add    rsp,0x30
   14000189a:	5d                   	pop    rbp
   14000189b:	c3                   	ret

000000014000189c <__tlregdtor>:
   14000189c:	55                   	push   rbp
   14000189d:	48 89 e5             	mov    rbp,rsp
   1400018a0:	48 89 4d 10          	mov    QWORD PTR [rbp+0x10],rcx
   1400018a4:	48 83 7d 10 00       	cmp    QWORD PTR [rbp+0x10],0x0
   1400018a9:	75 07                	jne    1400018b2 <__tlregdtor+0x16>
   1400018ab:	b8 00 00 00 00       	mov    eax,0x0
   1400018b0:	eb 05                	jmp    1400018b7 <__tlregdtor+0x1b>
   1400018b2:	b8 00 00 00 00       	mov    eax,0x0
   1400018b7:	5d                   	pop    rbp
   1400018b8:	c3                   	ret

00000001400018b9 <__dyn_tls_dtor>:
   1400018b9:	55                   	push   rbp
   1400018ba:	48 89 e5             	mov    rbp,rsp
   1400018bd:	48 83 ec 20          	sub    rsp,0x20
   1400018c1:	48 89 4d 10          	mov    QWORD PTR [rbp+0x10],rcx
   1400018c5:	89 55 18             	mov    DWORD PTR [rbp+0x18],edx
   1400018c8:	4c 89 45 20          	mov    QWORD PTR [rbp+0x20],r8
   1400018cc:	83 7d 18 03          	cmp    DWORD PTR [rbp+0x18],0x3
   1400018d0:	74 06                	je     1400018d8 <__dyn_tls_dtor+0x1f>
   1400018d2:	83 7d 18 00          	cmp    DWORD PTR [rbp+0x18],0x0
   1400018d6:	75 18                	jne    1400018f0 <__dyn_tls_dtor+0x37>
   1400018d8:	48 8b 4d 20          	mov    rcx,QWORD PTR [rbp+0x20]
   1400018dc:	8b 55 18             	mov    edx,DWORD PTR [rbp+0x18]
   1400018df:	48 8b 45 10          	mov    rax,QWORD PTR [rbp+0x10]
   1400018e3:	49 89 c8             	mov    r8,rcx
   1400018e6:	48 89 c1             	mov    rcx,rax
   1400018e9:	e8 f3 0e 00 00       	call   1400027e1 <__mingw_TLScallback>
   1400018ee:	eb 01                	jmp    1400018f1 <__dyn_tls_dtor+0x38>
   1400018f0:	90                   	nop
   1400018f1:	48 83 c4 20          	add    rsp,0x20
   1400018f5:	5d                   	pop    rbp
   1400018f6:	c3                   	ret
   1400018f7:	90                   	nop
   1400018f8:	90                   	nop
   1400018f9:	90                   	nop
   1400018fa:	90                   	nop
   1400018fb:	90                   	nop
   1400018fc:	90                   	nop
   1400018fd:	90                   	nop
   1400018fe:	90                   	nop
   1400018ff:	90                   	nop

0000000140001900 <_matherr>:
   140001900:	55                   	push   rbp
   140001901:	53                   	push   rbx
   140001902:	48 81 ec 88 00 00 00 	sub    rsp,0x88
   140001909:	48 8d 6c 24 50       	lea    rbp,[rsp+0x50]
   14000190e:	0f 29 75 00          	movaps XMMWORD PTR [rbp+0x0],xmm6
   140001912:	0f 29 7d 10          	movaps XMMWORD PTR [rbp+0x10],xmm7
   140001916:	44 0f 29 45 20       	movaps XMMWORD PTR [rbp+0x20],xmm8
   14000191b:	48 89 4d 50          	mov    QWORD PTR [rbp+0x50],rcx
   14000191f:	48 8b 45 50          	mov    rax,QWORD PTR [rbp+0x50]
   140001923:	8b 00                	mov    eax,DWORD PTR [rax]
   140001925:	83 f8 06             	cmp    eax,0x6
   140001928:	74 56                	je     140001980 <_matherr+0x80>
   14000192a:	83 f8 06             	cmp    eax,0x6
   14000192d:	7f 78                	jg     1400019a7 <_matherr+0xa7>
   14000192f:	83 f8 05             	cmp    eax,0x5
   140001932:	74 59                	je     14000198d <_matherr+0x8d>
   140001934:	83 f8 05             	cmp    eax,0x5
   140001937:	7f 6e                	jg     1400019a7 <_matherr+0xa7>
   140001939:	83 f8 04             	cmp    eax,0x4
   14000193c:	74 5c                	je     14000199a <_matherr+0x9a>
   14000193e:	83 f8 04             	cmp    eax,0x4
   140001941:	7f 64                	jg     1400019a7 <_matherr+0xa7>
   140001943:	83 f8 03             	cmp    eax,0x3
   140001946:	74 2b                	je     140001973 <_matherr+0x73>
   140001948:	83 f8 03             	cmp    eax,0x3
   14000194b:	7f 5a                	jg     1400019a7 <_matherr+0xa7>
   14000194d:	83 f8 01             	cmp    eax,0x1
   140001950:	74 07                	je     140001959 <_matherr+0x59>
   140001952:	83 f8 02             	cmp    eax,0x2
   140001955:	74 0f                	je     140001966 <_matherr+0x66>
   140001957:	eb 4e                	jmp    1400019a7 <_matherr+0xa7>
   140001959:	48 8d 05 60 97 00 00 	lea    rax,[rip+0x9760]        # 14000b0c0 <.rdata>
   140001960:	48 89 45 f8          	mov    QWORD PTR [rbp-0x8],rax
   140001964:	eb 4d                	jmp    1400019b3 <_matherr+0xb3>
   140001966:	48 8d 05 72 97 00 00 	lea    rax,[rip+0x9772]        # 14000b0df <.rdata+0x1f>
   14000196d:	48 89 45 f8          	mov    QWORD PTR [rbp-0x8],rax
   140001971:	eb 40                	jmp    1400019b3 <_matherr+0xb3>
   140001973:	48 8d 05 86 97 00 00 	lea    rax,[rip+0x9786]        # 14000b100 <.rdata+0x40>
   14000197a:	48 89 45 f8          	mov    QWORD PTR [rbp-0x8],rax
   14000197e:	eb 33                	jmp    1400019b3 <_matherr+0xb3>
   140001980:	48 8d 05 99 97 00 00 	lea    rax,[rip+0x9799]        # 14000b120 <.rdata+0x60>
   140001987:	48 89 45 f8          	mov    QWORD PTR [rbp-0x8],rax
   14000198b:	eb 26                	jmp    1400019b3 <_matherr+0xb3>
   14000198d:	48 8d 05 b4 97 00 00 	lea    rax,[rip+0x97b4]        # 14000b148 <.rdata+0x88>
   140001994:	48 89 45 f8          	mov    QWORD PTR [rbp-0x8],rax
   140001998:	eb 19                	jmp    1400019b3 <_matherr+0xb3>
   14000199a:	48 8d 05 cf 97 00 00 	lea    rax,[rip+0x97cf]        # 14000b170 <.rdata+0xb0>
   1400019a1:	48 89 45 f8          	mov    QWORD PTR [rbp-0x8],rax
   1400019a5:	eb 0c                	jmp    1400019b3 <_matherr+0xb3>
   1400019a7:	48 8d 05 f8 97 00 00 	lea    rax,[rip+0x97f8]        # 14000b1a6 <.rdata+0xe6>
   1400019ae:	48 89 45 f8          	mov    QWORD PTR [rbp-0x8],rax
   1400019b2:	90                   	nop
   1400019b3:	48 8b 45 50          	mov    rax,QWORD PTR [rbp+0x50]
   1400019b7:	f2 44 0f 10 40 20    	movsd  xmm8,QWORD PTR [rax+0x20]
   1400019bd:	48 8b 45 50          	mov    rax,QWORD PTR [rbp+0x50]
   1400019c1:	f2 0f 10 78 18       	movsd  xmm7,QWORD PTR [rax+0x18]
   1400019c6:	48 8b 45 50          	mov    rax,QWORD PTR [rbp+0x50]
   1400019ca:	f2 0f 10 70 10       	movsd  xmm6,QWORD PTR [rax+0x10]
   1400019cf:	48 8b 45 50          	mov    rax,QWORD PTR [rbp+0x50]
   1400019d3:	48 8b 58 08          	mov    rbx,QWORD PTR [rax+0x8]
   1400019d7:	b9 02 00 00 00       	mov    ecx,0x2
   1400019dc:	e8 3f 79 00 00       	call   140009320 <__acrt_iob_func>
   1400019e1:	48 89 c1             	mov    rcx,rax
   1400019e4:	48 8b 55 f8          	mov    rdx,QWORD PTR [rbp-0x8]
   1400019e8:	48 8d 05 c9 97 00 00 	lea    rax,[rip+0x97c9]        # 14000b1b8 <.rdata+0xf8>
   1400019ef:	f2 44 0f 11 44 24 30 	movsd  QWORD PTR [rsp+0x30],xmm8
   1400019f6:	f2 0f 11 7c 24 28    	movsd  QWORD PTR [rsp+0x28],xmm7
   1400019fc:	f2 0f 11 74 24 20    	movsd  QWORD PTR [rsp+0x20],xmm6
   140001a02:	49 89 d9             	mov    r9,rbx
   140001a05:	49 89 d0             	mov    r8,rdx
   140001a08:	48 89 c2             	mov    rdx,rax
   140001a0b:	e8 c8 79 00 00       	call   1400093d8 <fprintf>
   140001a10:	b8 00 00 00 00       	mov    eax,0x0
   140001a15:	0f 28 75 00          	movaps xmm6,XMMWORD PTR [rbp+0x0]
   140001a19:	0f 28 7d 10          	movaps xmm7,XMMWORD PTR [rbp+0x10]
   140001a1d:	44 0f 28 45 20       	movaps xmm8,XMMWORD PTR [rbp+0x20]
   140001a22:	48 81 c4 88 00 00 00 	add    rsp,0x88
   140001a29:	5b                   	pop    rbx
   140001a2a:	5d                   	pop    rbp
   140001a2b:	c3                   	ret
   140001a2c:	90                   	nop
   140001a2d:	90                   	nop
   140001a2e:	90                   	nop
   140001a2f:	90                   	nop

0000000140001a30 <__report_error>:
   140001a30:	55                   	push   rbp
   140001a31:	53                   	push   rbx
   140001a32:	48 83 ec 38          	sub    rsp,0x38
   140001a36:	48 8d 6c 24 30       	lea    rbp,[rsp+0x30]
   140001a3b:	48 89 4d 20          	mov    QWORD PTR [rbp+0x20],rcx
   140001a3f:	48 89 55 28          	mov    QWORD PTR [rbp+0x28],rdx
   140001a43:	4c 89 45 30          	mov    QWORD PTR [rbp+0x30],r8
   140001a47:	4c 89 4d 38          	mov    QWORD PTR [rbp+0x38],r9
   140001a4b:	48 8d 45 28          	lea    rax,[rbp+0x28]
   140001a4f:	48 89 45 f8          	mov    QWORD PTR [rbp-0x8],rax
   140001a53:	b9 02 00 00 00       	mov    ecx,0x2
   140001a58:	e8 c3 78 00 00       	call   140009320 <__acrt_iob_func>
   140001a5d:	48 89 c1             	mov    rcx,rax
   140001a60:	48 8d 05 89 97 00 00 	lea    rax,[rip+0x9789]        # 14000b1f0 <.rdata>
   140001a67:	48 89 c2             	mov    rdx,rax
   140001a6a:	e8 69 79 00 00       	call   1400093d8 <fprintf>
   140001a6f:	48 8b 5d f8          	mov    rbx,QWORD PTR [rbp-0x8]
   140001a73:	b9 02 00 00 00       	mov    ecx,0x2
   140001a78:	e8 a3 78 00 00       	call   140009320 <__acrt_iob_func>
   140001a7d:	48 89 c1             	mov    rcx,rax
   140001a80:	48 8b 45 20          	mov    rax,QWORD PTR [rbp+0x20]
   140001a84:	49 89 d8             	mov    r8,rbx
   140001a87:	48 89 c2             	mov    rdx,rax
   140001a8a:	e8 99 79 00 00       	call   140009428 <vfprintf>
   140001a8f:	e8 24 79 00 00       	call   1400093b8 <abort>
   140001a94:	90                   	nop

0000000140001a95 <mark_section_writable>:
   140001a95:	55                   	push   rbp
   140001a96:	48 89 e5             	mov    rbp,rsp
   140001a99:	48 83 ec 60          	sub    rsp,0x60
   140001a9d:	48 89 4d 10          	mov    QWORD PTR [rbp+0x10],rcx
   140001aa1:	c7 45 fc 00 00 00 00 	mov    DWORD PTR [rbp-0x4],0x0
   140001aa8:	e9 82 00 00 00       	jmp    140001b2f <mark_section_writable+0x9a>
   140001aad:	48 8b 0d 2c e6 00 00 	mov    rcx,QWORD PTR [rip+0xe62c]        # 1400100e0 <the_secs>
   140001ab4:	8b 45 fc             	mov    eax,DWORD PTR [rbp-0x4]
   140001ab7:	48 63 d0             	movsxd rdx,eax
   140001aba:	48 89 d0             	mov    rax,rdx
   140001abd:	48 c1 e0 02          	shl    rax,0x2
   140001ac1:	48 01 d0             	add    rax,rdx
   140001ac4:	48 c1 e0 03          	shl    rax,0x3
   140001ac8:	48 01 c8             	add    rax,rcx
   140001acb:	48 8b 40 18          	mov    rax,QWORD PTR [rax+0x18]
   140001acf:	48 39 45 10          	cmp    QWORD PTR [rbp+0x10],rax
   140001ad3:	72 56                	jb     140001b2b <mark_section_writable+0x96>
   140001ad5:	48 8b 0d 04 e6 00 00 	mov    rcx,QWORD PTR [rip+0xe604]        # 1400100e0 <the_secs>
   140001adc:	8b 45 fc             	mov    eax,DWORD PTR [rbp-0x4]
   140001adf:	48 63 d0             	movsxd rdx,eax
   140001ae2:	48 89 d0             	mov    rax,rdx
   140001ae5:	48 c1 e0 02          	shl    rax,0x2
   140001ae9:	48 01 d0             	add    rax,rdx
   140001aec:	48 c1 e0 03          	shl    rax,0x3
   140001af0:	48 01 c8             	add    rax,rcx
   140001af3:	48 8b 48 18          	mov    rcx,QWORD PTR [rax+0x18]
   140001af7:	4c 8b 05 e2 e5 00 00 	mov    r8,QWORD PTR [rip+0xe5e2]        # 1400100e0 <the_secs>
   140001afe:	8b 45 fc             	mov    eax,DWORD PTR [rbp-0x4]
   140001b01:	48 63 d0             	movsxd rdx,eax
   140001b04:	48 89 d0             	mov    rax,rdx
   140001b07:	48 c1 e0 02          	shl    rax,0x2
   140001b0b:	48 01 d0             	add    rax,rdx
   140001b0e:	48 c1 e0 03          	shl    rax,0x3
   140001b12:	4c 01 c0             	add    rax,r8
   140001b15:	48 8b 40 20          	mov    rax,QWORD PTR [rax+0x20]
   140001b19:	8b 40 08             	mov    eax,DWORD PTR [rax+0x8]
   140001b1c:	89 c0                	mov    eax,eax
   140001b1e:	48 01 c8             	add    rax,rcx
   140001b21:	48 39 45 10          	cmp    QWORD PTR [rbp+0x10],rax
   140001b25:	0f 82 41 02 00 00    	jb     140001d6c <mark_section_writable+0x2d7>
   140001b2b:	83 45 fc 01          	add    DWORD PTR [rbp-0x4],0x1
   140001b2f:	8b 05 b3 e5 00 00    	mov    eax,DWORD PTR [rip+0xe5b3]        # 1400100e8 <maxSections>
   140001b35:	39 45 fc             	cmp    DWORD PTR [rbp-0x4],eax
   140001b38:	0f 8c 6f ff ff ff    	jl     140001aad <mark_section_writable+0x18>
   140001b3e:	48 8b 45 10          	mov    rax,QWORD PTR [rbp+0x10]
   140001b42:	48 89 c1             	mov    rcx,rax
   140001b45:	e8 81 0f 00 00       	call   140002acb <__mingw_GetSectionForAddress>
   140001b4a:	48 89 45 f0          	mov    QWORD PTR [rbp-0x10],rax
   140001b4e:	48 83 7d f0 00       	cmp    QWORD PTR [rbp-0x10],0x0
   140001b53:	75 13                	jne    140001b68 <mark_section_writable+0xd3>
   140001b55:	48 8b 45 10          	mov    rax,QWORD PTR [rbp+0x10]
   140001b59:	48 8d 0d b0 96 00 00 	lea    rcx,[rip+0x96b0]        # 14000b210 <.rdata+0x20>
   140001b60:	48 89 c2             	mov    rdx,rax
   140001b63:	e8 c8 fe ff ff       	call   140001a30 <__report_error>
   140001b68:	48 8b 0d 71 e5 00 00 	mov    rcx,QWORD PTR [rip+0xe571]        # 1400100e0 <the_secs>
   140001b6f:	8b 45 fc             	mov    eax,DWORD PTR [rbp-0x4]
   140001b72:	48 63 d0             	movsxd rdx,eax
   140001b75:	48 89 d0             	mov    rax,rdx
   140001b78:	48 c1 e0 02          	shl    rax,0x2
   140001b7c:	48 01 d0             	add    rax,rdx
   140001b7f:	48 c1 e0 03          	shl    rax,0x3
   140001b83:	48 8d 14 01          	lea    rdx,[rcx+rax*1]
   140001b87:	48 8b 45 f0          	mov    rax,QWORD PTR [rbp-0x10]
   140001b8b:	48 89 42 20          	mov    QWORD PTR [rdx+0x20],rax
   140001b8f:	48 8b 0d 4a e5 00 00 	mov    rcx,QWORD PTR [rip+0xe54a]        # 1400100e0 <the_secs>
   140001b96:	8b 45 fc             	mov    eax,DWORD PTR [rbp-0x4]
   140001b99:	48 63 d0             	movsxd rdx,eax
   140001b9c:	48 89 d0             	mov    rax,rdx
   140001b9f:	48 c1 e0 02          	shl    rax,0x2
   140001ba3:	48 01 d0             	add    rax,rdx
   140001ba6:	48 c1 e0 03          	shl    rax,0x3
   140001baa:	48 01 c8             	add    rax,rcx
   140001bad:	c7 00 00 00 00 00    	mov    DWORD PTR [rax],0x0
   140001bb3:	e8 5f 10 00 00       	call   140002c17 <_GetPEImageBase>
   140001bb8:	48 89 c1             	mov    rcx,rax
   140001bbb:	48 8b 45 f0          	mov    rax,QWORD PTR [rbp-0x10]
   140001bbf:	8b 40 0c             	mov    eax,DWORD PTR [rax+0xc]
   140001bc2:	41 89 c1             	mov    r9d,eax
   140001bc5:	4c 8b 05 14 e5 00 00 	mov    r8,QWORD PTR [rip+0xe514]        # 1400100e0 <the_secs>
   140001bcc:	8b 45 fc             	mov    eax,DWORD PTR [rbp-0x4]
   140001bcf:	48 63 d0             	movsxd rdx,eax
   140001bd2:	48 89 d0             	mov    rax,rdx
   140001bd5:	48 c1 e0 02          	shl    rax,0x2
   140001bd9:	48 01 d0             	add    rax,rdx
   140001bdc:	48 c1 e0 03          	shl    rax,0x3
   140001be0:	4c 01 c0             	add    rax,r8
   140001be3:	4a 8d 14 09          	lea    rdx,[rcx+r9*1]
   140001be7:	48 89 50 18          	mov    QWORD PTR [rax+0x18],rdx
   140001beb:	48 8b 0d ee e4 00 00 	mov    rcx,QWORD PTR [rip+0xe4ee]        # 1400100e0 <the_secs>
   140001bf2:	8b 45 fc             	mov    eax,DWORD PTR [rbp-0x4]
   140001bf5:	48 63 d0             	movsxd rdx,eax
   140001bf8:	48 89 d0             	mov    rax,rdx
   140001bfb:	48 c1 e0 02          	shl    rax,0x2
   140001bff:	48 01 d0             	add    rax,rdx
   140001c02:	48 c1 e0 03          	shl    rax,0x3
   140001c06:	48 01 c8             	add    rax,rcx
   140001c09:	48 8b 40 18          	mov    rax,QWORD PTR [rax+0x18]
   140001c0d:	48 8d 55 c0          	lea    rdx,[rbp-0x40]
   140001c11:	41 b8 30 00 00 00    	mov    r8d,0x30
   140001c17:	48 89 c1             	mov    rcx,rax
   140001c1a:	48 8b 05 2f f6 00 00 	mov    rax,QWORD PTR [rip+0xf62f]        # 140011250 <__imp_VirtualQuery>
   140001c21:	ff d0                	call   rax
   140001c23:	48 85 c0             	test   rax,rax
   140001c26:	75 3f                	jne    140001c67 <mark_section_writable+0x1d2>
   140001c28:	48 8b 0d b1 e4 00 00 	mov    rcx,QWORD PTR [rip+0xe4b1]        # 1400100e0 <the_secs>
   140001c2f:	8b 45 fc             	mov    eax,DWORD PTR [rbp-0x4]
   140001c32:	48 63 d0             	movsxd rdx,eax
   140001c35:	48 89 d0             	mov    rax,rdx
   140001c38:	48 c1 e0 02          	shl    rax,0x2
   140001c3c:	48 01 d0             	add    rax,rdx
   140001c3f:	48 c1 e0 03          	shl    rax,0x3
   140001c43:	48 01 c8             	add    rax,rcx
   140001c46:	48 8b 50 18          	mov    rdx,QWORD PTR [rax+0x18]
   140001c4a:	48 8b 45 f0          	mov    rax,QWORD PTR [rbp-0x10]
   140001c4e:	8b 40 08             	mov    eax,DWORD PTR [rax+0x8]
   140001c51:	89 c1                	mov    ecx,eax
   140001c53:	48 8d 05 d6 95 00 00 	lea    rax,[rip+0x95d6]        # 14000b230 <.rdata+0x40>
   140001c5a:	49 89 d0             	mov    r8,rdx
   140001c5d:	89 ca                	mov    edx,ecx
   140001c5f:	48 89 c1             	mov    rcx,rax
   140001c62:	e8 c9 fd ff ff       	call   140001a30 <__report_error>
   140001c67:	8b 45 e4             	mov    eax,DWORD PTR [rbp-0x1c]
   140001c6a:	83 f8 40             	cmp    eax,0x40
   140001c6d:	0f 84 e8 00 00 00    	je     140001d5b <mark_section_writable+0x2c6>
   140001c73:	8b 45 e4             	mov    eax,DWORD PTR [rbp-0x1c]
   140001c76:	83 f8 04             	cmp    eax,0x4
   140001c79:	0f 84 dc 00 00 00    	je     140001d5b <mark_section_writable+0x2c6>
   140001c7f:	8b 45 e4             	mov    eax,DWORD PTR [rbp-0x1c]
   140001c82:	3d 80 00 00 00       	cmp    eax,0x80
   140001c87:	0f 84 ce 00 00 00    	je     140001d5b <mark_section_writable+0x2c6>
   140001c8d:	8b 45 e4             	mov    eax,DWORD PTR [rbp-0x1c]
   140001c90:	83 f8 08             	cmp    eax,0x8
   140001c93:	0f 84 c2 00 00 00    	je     140001d5b <mark_section_writable+0x2c6>
   140001c99:	8b 45 e4             	mov    eax,DWORD PTR [rbp-0x1c]
   140001c9c:	83 f8 02             	cmp    eax,0x2
   140001c9f:	75 09                	jne    140001caa <mark_section_writable+0x215>
   140001ca1:	c7 45 f8 04 00 00 00 	mov    DWORD PTR [rbp-0x8],0x4
   140001ca8:	eb 07                	jmp    140001cb1 <mark_section_writable+0x21c>
   140001caa:	c7 45 f8 40 00 00 00 	mov    DWORD PTR [rbp-0x8],0x40
   140001cb1:	48 8b 0d 28 e4 00 00 	mov    rcx,QWORD PTR [rip+0xe428]        # 1400100e0 <the_secs>
   140001cb8:	8b 45 fc             	mov    eax,DWORD PTR [rbp-0x4]
   140001cbb:	48 63 d0             	movsxd rdx,eax
   140001cbe:	48 89 d0             	mov    rax,rdx
   140001cc1:	48 c1 e0 02          	shl    rax,0x2
   140001cc5:	48 01 d0             	add    rax,rdx
   140001cc8:	48 c1 e0 03          	shl    rax,0x3
   140001ccc:	48 8d 14 01          	lea    rdx,[rcx+rax*1]
   140001cd0:	48 8b 45 c0          	mov    rax,QWORD PTR [rbp-0x40]
   140001cd4:	48 89 42 08          	mov    QWORD PTR [rdx+0x8],rax
   140001cd8:	48 8b 0d 01 e4 00 00 	mov    rcx,QWORD PTR [rip+0xe401]        # 1400100e0 <the_secs>
   140001cdf:	8b 45 fc             	mov    eax,DWORD PTR [rbp-0x4]
   140001ce2:	48 63 d0             	movsxd rdx,eax
   140001ce5:	48 89 d0             	mov    rax,rdx
   140001ce8:	48 c1 e0 02          	shl    rax,0x2
   140001cec:	48 01 d0             	add    rax,rdx
   140001cef:	48 c1 e0 03          	shl    rax,0x3
   140001cf3:	48 8d 14 01          	lea    rdx,[rcx+rax*1]
   140001cf7:	48 8b 45 d8          	mov    rax,QWORD PTR [rbp-0x28]
   140001cfb:	48 89 42 10          	mov    QWORD PTR [rdx+0x10],rax
   140001cff:	48 8b 0d da e3 00 00 	mov    rcx,QWORD PTR [rip+0xe3da]        # 1400100e0 <the_secs>
   140001d06:	8b 45 fc             	mov    eax,DWORD PTR [rbp-0x4]
   140001d09:	48 63 d0             	movsxd rdx,eax
   140001d0c:	48 89 d0             	mov    rax,rdx
   140001d0f:	48 c1 e0 02          	shl    rax,0x2
   140001d13:	48 01 d0             	add    rax,rdx
   140001d16:	48 c1 e0 03          	shl    rax,0x3
   140001d1a:	48 01 c8             	add    rax,rcx
   140001d1d:	49 89 c0             	mov    r8,rax
   140001d20:	48 8b 55 d8          	mov    rdx,QWORD PTR [rbp-0x28]
   140001d24:	48 8b 45 c0          	mov    rax,QWORD PTR [rbp-0x40]
   140001d28:	8b 4d f8             	mov    ecx,DWORD PTR [rbp-0x8]
   140001d2b:	4d 89 c1             	mov    r9,r8
   140001d2e:	41 89 c8             	mov    r8d,ecx
   140001d31:	48 89 c1             	mov    rcx,rax
   140001d34:	48 8b 05 0d f5 00 00 	mov    rax,QWORD PTR [rip+0xf50d]        # 140011248 <__imp_VirtualProtect>
   140001d3b:	ff d0                	call   rax
   140001d3d:	85 c0                	test   eax,eax
   140001d3f:	75 1a                	jne    140001d5b <mark_section_writable+0x2c6>
   140001d41:	48 8b 05 a8 f4 00 00 	mov    rax,QWORD PTR [rip+0xf4a8]        # 1400111f0 <__imp_GetLastError>
   140001d48:	ff d0                	call   rax
   140001d4a:	89 c2                	mov    edx,eax
   140001d4c:	48 8d 05 15 95 00 00 	lea    rax,[rip+0x9515]        # 14000b268 <.rdata+0x78>
   140001d53:	48 89 c1             	mov    rcx,rax
   140001d56:	e8 d5 fc ff ff       	call   140001a30 <__report_error>
   140001d5b:	8b 05 87 e3 00 00    	mov    eax,DWORD PTR [rip+0xe387]        # 1400100e8 <maxSections>
   140001d61:	83 c0 01             	add    eax,0x1
   140001d64:	89 05 7e e3 00 00    	mov    DWORD PTR [rip+0xe37e],eax        # 1400100e8 <maxSections>
   140001d6a:	eb 01                	jmp    140001d6d <mark_section_writable+0x2d8>
   140001d6c:	90                   	nop
   140001d6d:	48 83 c4 60          	add    rsp,0x60
   140001d71:	5d                   	pop    rbp
   140001d72:	c3                   	ret

0000000140001d73 <restore_modified_sections>:
   140001d73:	55                   	push   rbp
   140001d74:	48 89 e5             	mov    rbp,rsp
   140001d77:	48 83 ec 30          	sub    rsp,0x30
   140001d7b:	c7 45 fc 00 00 00 00 	mov    DWORD PTR [rbp-0x4],0x0
   140001d82:	e9 ad 00 00 00       	jmp    140001e34 <restore_modified_sections+0xc1>
   140001d87:	48 8b 0d 52 e3 00 00 	mov    rcx,QWORD PTR [rip+0xe352]        # 1400100e0 <the_secs>
   140001d8e:	8b 45 fc             	mov    eax,DWORD PTR [rbp-0x4]
   140001d91:	48 63 d0             	movsxd rdx,eax
   140001d94:	48 89 d0             	mov    rax,rdx
   140001d97:	48 c1 e0 02          	shl    rax,0x2
   140001d9b:	48 01 d0             	add    rax,rdx
   140001d9e:	48 c1 e0 03          	shl    rax,0x3
   140001da2:	48 01 c8             	add    rax,rcx
   140001da5:	8b 00                	mov    eax,DWORD PTR [rax]
   140001da7:	85 c0                	test   eax,eax
   140001da9:	0f 84 80 00 00 00    	je     140001e2f <restore_modified_sections+0xbc>
   140001daf:	48 8b 0d 2a e3 00 00 	mov    rcx,QWORD PTR [rip+0xe32a]        # 1400100e0 <the_secs>
   140001db6:	8b 45 fc             	mov    eax,DWORD PTR [rbp-0x4]
   140001db9:	48 63 d0             	movsxd rdx,eax
   140001dbc:	48 89 d0             	mov    rax,rdx
   140001dbf:	48 c1 e0 02          	shl    rax,0x2
   140001dc3:	48 01 d0             	add    rax,rdx
   140001dc6:	48 c1 e0 03          	shl    rax,0x3
   140001dca:	48 01 c8             	add    rax,rcx
   140001dcd:	44 8b 10             	mov    r10d,DWORD PTR [rax]
   140001dd0:	48 8b 0d 09 e3 00 00 	mov    rcx,QWORD PTR [rip+0xe309]        # 1400100e0 <the_secs>
   140001dd7:	8b 45 fc             	mov    eax,DWORD PTR [rbp-0x4]
   140001dda:	48 63 d0             	movsxd rdx,eax
   140001ddd:	48 89 d0             	mov    rax,rdx
   140001de0:	48 c1 e0 02          	shl    rax,0x2
   140001de4:	48 01 d0             	add    rax,rdx
   140001de7:	48 c1 e0 03          	shl    rax,0x3
   140001deb:	48 01 c8             	add    rax,rcx
   140001dee:	48 8b 48 10          	mov    rcx,QWORD PTR [rax+0x10]
   140001df2:	4c 8b 05 e7 e2 00 00 	mov    r8,QWORD PTR [rip+0xe2e7]        # 1400100e0 <the_secs>
   140001df9:	8b 45 fc             	mov    eax,DWORD PTR [rbp-0x4]
   140001dfc:	48 63 d0             	movsxd rdx,eax
   140001dff:	48 89 d0             	mov    rax,rdx
   140001e02:	48 c1 e0 02          	shl    rax,0x2
   140001e06:	48 01 d0             	add    rax,rdx
   140001e09:	48 c1 e0 03          	shl    rax,0x3
   140001e0d:	4c 01 c0             	add    rax,r8
   140001e10:	48 8b 40 08          	mov    rax,QWORD PTR [rax+0x8]
   140001e14:	48 8d 55 f8          	lea    rdx,[rbp-0x8]
   140001e18:	49 89 d1             	mov    r9,rdx
   140001e1b:	45 89 d0             	mov    r8d,r10d
   140001e1e:	48 89 ca             	mov    rdx,rcx
   140001e21:	48 89 c1             	mov    rcx,rax
   140001e24:	48 8b 05 1d f4 00 00 	mov    rax,QWORD PTR [rip+0xf41d]        # 140011248 <__imp_VirtualProtect>
   140001e2b:	ff d0                	call   rax
   140001e2d:	eb 01                	jmp    140001e30 <restore_modified_sections+0xbd>
   140001e2f:	90                   	nop
   140001e30:	83 45 fc 01          	add    DWORD PTR [rbp-0x4],0x1
   140001e34:	8b 05 ae e2 00 00    	mov    eax,DWORD PTR [rip+0xe2ae]        # 1400100e8 <maxSections>
   140001e3a:	39 45 fc             	cmp    DWORD PTR [rbp-0x4],eax
   140001e3d:	0f 8c 44 ff ff ff    	jl     140001d87 <restore_modified_sections+0x14>
   140001e43:	90                   	nop
   140001e44:	90                   	nop
   140001e45:	48 83 c4 30          	add    rsp,0x30
   140001e49:	5d                   	pop    rbp
   140001e4a:	c3                   	ret

0000000140001e4b <__write_memory>:
   140001e4b:	55                   	push   rbp
   140001e4c:	48 89 e5             	mov    rbp,rsp
   140001e4f:	48 83 ec 20          	sub    rsp,0x20
   140001e53:	48 89 4d 10          	mov    QWORD PTR [rbp+0x10],rcx
   140001e57:	48 89 55 18          	mov    QWORD PTR [rbp+0x18],rdx
   140001e5b:	4c 89 45 20          	mov    QWORD PTR [rbp+0x20],r8
   140001e5f:	48 83 7d 20 00       	cmp    QWORD PTR [rbp+0x20],0x0
   140001e64:	74 25                	je     140001e8b <__write_memory+0x40>
   140001e66:	48 8b 45 10          	mov    rax,QWORD PTR [rbp+0x10]
   140001e6a:	48 89 c1             	mov    rcx,rax
   140001e6d:	e8 23 fc ff ff       	call   140001a95 <mark_section_writable>
   140001e72:	48 8b 4d 20          	mov    rcx,QWORD PTR [rbp+0x20]
   140001e76:	48 8b 55 18          	mov    rdx,QWORD PTR [rbp+0x18]
   140001e7a:	48 8b 45 10          	mov    rax,QWORD PTR [rbp+0x10]
   140001e7e:	49 89 c8             	mov    r8,rcx
   140001e81:	48 89 c1             	mov    rcx,rax
   140001e84:	e8 77 75 00 00       	call   140009400 <memcpy>
   140001e89:	eb 01                	jmp    140001e8c <__write_memory+0x41>
   140001e8b:	90                   	nop
   140001e8c:	48 83 c4 20          	add    rsp,0x20
   140001e90:	5d                   	pop    rbp
   140001e91:	c3                   	ret

0000000140001e92 <do_pseudo_reloc>:
   140001e92:	55                   	push   rbp
   140001e93:	48 89 e5             	mov    rbp,rsp
   140001e96:	48 83 c4 80          	add    rsp,0xffffffffffffff80
   140001e9a:	48 89 4d 10          	mov    QWORD PTR [rbp+0x10],rcx
   140001e9e:	48 89 55 18          	mov    QWORD PTR [rbp+0x18],rdx
   140001ea2:	4c 89 45 20          	mov    QWORD PTR [rbp+0x20],r8
   140001ea6:	48 8b 45 18          	mov    rax,QWORD PTR [rbp+0x18]
   140001eaa:	48 2b 45 10          	sub    rax,QWORD PTR [rbp+0x10]
   140001eae:	48 89 45 e0          	mov    QWORD PTR [rbp-0x20],rax
   140001eb2:	48 8b 45 10          	mov    rax,QWORD PTR [rbp+0x10]
   140001eb6:	48 89 45 f8          	mov    QWORD PTR [rbp-0x8],rax
   140001eba:	48 83 7d e0 07       	cmp    QWORD PTR [rbp-0x20],0x7
   140001ebf:	0f 8e 44 03 00 00    	jle    140002209 <do_pseudo_reloc+0x377>
   140001ec5:	48 83 7d e0 0b       	cmp    QWORD PTR [rbp-0x20],0xb
   140001eca:	7e 25                	jle    140001ef1 <do_pseudo_reloc+0x5f>
   140001ecc:	48 8b 45 f8          	mov    rax,QWORD PTR [rbp-0x8]
   140001ed0:	8b 00                	mov    eax,DWORD PTR [rax]
   140001ed2:	85 c0                	test   eax,eax
   140001ed4:	75 1b                	jne    140001ef1 <do_pseudo_reloc+0x5f>
   140001ed6:	48 8b 45 f8          	mov    rax,QWORD PTR [rbp-0x8]
   140001eda:	8b 40 04             	mov    eax,DWORD PTR [rax+0x4]
   140001edd:	85 c0                	test   eax,eax
   140001edf:	75 10                	jne    140001ef1 <do_pseudo_reloc+0x5f>
   140001ee1:	48 8b 45 f8          	mov    rax,QWORD PTR [rbp-0x8]
   140001ee5:	8b 40 08             	mov    eax,DWORD PTR [rax+0x8]
   140001ee8:	85 c0                	test   eax,eax
   140001eea:	75 05                	jne    140001ef1 <do_pseudo_reloc+0x5f>
   140001eec:	48 83 45 f8 0c       	add    QWORD PTR [rbp-0x8],0xc
   140001ef1:	48 8b 45 f8          	mov    rax,QWORD PTR [rbp-0x8]
   140001ef5:	8b 00                	mov    eax,DWORD PTR [rax]
   140001ef7:	85 c0                	test   eax,eax
   140001ef9:	75 0b                	jne    140001f06 <do_pseudo_reloc+0x74>
   140001efb:	48 8b 45 f8          	mov    rax,QWORD PTR [rbp-0x8]
   140001eff:	8b 40 04             	mov    eax,DWORD PTR [rax+0x4]
   140001f02:	85 c0                	test   eax,eax
   140001f04:	74 59                	je     140001f5f <do_pseudo_reloc+0xcd>
   140001f06:	48 8b 45 f8          	mov    rax,QWORD PTR [rbp-0x8]
   140001f0a:	48 89 45 e8          	mov    QWORD PTR [rbp-0x18],rax
   140001f0e:	eb 40                	jmp    140001f50 <do_pseudo_reloc+0xbe>
   140001f10:	48 8b 45 e8          	mov    rax,QWORD PTR [rbp-0x18]
   140001f14:	8b 40 04             	mov    eax,DWORD PTR [rax+0x4]
   140001f17:	89 c2                	mov    edx,eax
   140001f19:	48 8b 45 20          	mov    rax,QWORD PTR [rbp+0x20]
   140001f1d:	48 01 d0             	add    rax,rdx
   140001f20:	48 89 45 e0          	mov    QWORD PTR [rbp-0x20],rax
   140001f24:	48 8b 45 e0          	mov    rax,QWORD PTR [rbp-0x20]
   140001f28:	8b 10                	mov    edx,DWORD PTR [rax]
   140001f2a:	48 8b 45 e8          	mov    rax,QWORD PTR [rbp-0x18]
   140001f2e:	8b 00                	mov    eax,DWORD PTR [rax]
   140001f30:	01 d0                	add    eax,edx
   140001f32:	89 45 b4             	mov    DWORD PTR [rbp-0x4c],eax
   140001f35:	48 8b 45 e0          	mov    rax,QWORD PTR [rbp-0x20]
   140001f39:	48 8d 55 b4          	lea    rdx,[rbp-0x4c]
   140001f3d:	41 b8 04 00 00 00    	mov    r8d,0x4
   140001f43:	48 89 c1             	mov    rcx,rax
   140001f46:	e8 00 ff ff ff       	call   140001e4b <__write_memory>
   140001f4b:	48 83 45 e8 08       	add    QWORD PTR [rbp-0x18],0x8
   140001f50:	48 8b 45 e8          	mov    rax,QWORD PTR [rbp-0x18]
   140001f54:	48 3b 45 18          	cmp    rax,QWORD PTR [rbp+0x18]
   140001f58:	72 b6                	jb     140001f10 <do_pseudo_reloc+0x7e>
   140001f5a:	e9 ab 02 00 00       	jmp    14000220a <do_pseudo_reloc+0x378>
   140001f5f:	48 8b 45 f8          	mov    rax,QWORD PTR [rbp-0x8]
   140001f63:	8b 40 08             	mov    eax,DWORD PTR [rax+0x8]
   140001f66:	83 f8 01             	cmp    eax,0x1
   140001f69:	74 18                	je     140001f83 <do_pseudo_reloc+0xf1>
   140001f6b:	48 8b 45 f8          	mov    rax,QWORD PTR [rbp-0x8]
   140001f6f:	8b 40 08             	mov    eax,DWORD PTR [rax+0x8]
   140001f72:	89 c2                	mov    edx,eax
   140001f74:	48 8d 05 15 93 00 00 	lea    rax,[rip+0x9315]        # 14000b290 <.rdata+0xa0>
   140001f7b:	48 89 c1             	mov    rcx,rax
   140001f7e:	e8 ad fa ff ff       	call   140001a30 <__report_error>
   140001f83:	48 8b 45 f8          	mov    rax,QWORD PTR [rbp-0x8]
   140001f87:	48 83 c0 0c          	add    rax,0xc
   140001f8b:	48 89 45 f0          	mov    QWORD PTR [rbp-0x10],rax
   140001f8f:	e9 65 02 00 00       	jmp    1400021f9 <do_pseudo_reloc+0x367>
   140001f94:	48 8b 45 f0          	mov    rax,QWORD PTR [rbp-0x10]
   140001f98:	8b 40 04             	mov    eax,DWORD PTR [rax+0x4]
   140001f9b:	89 c2                	mov    edx,eax
   140001f9d:	48 8b 45 20          	mov    rax,QWORD PTR [rbp+0x20]
   140001fa1:	48 01 d0             	add    rax,rdx
   140001fa4:	48 89 45 e0          	mov    QWORD PTR [rbp-0x20],rax
   140001fa8:	48 8b 45 f0          	mov    rax,QWORD PTR [rbp-0x10]
   140001fac:	8b 00                	mov    eax,DWORD PTR [rax]
   140001fae:	89 c2                	mov    edx,eax
   140001fb0:	48 8b 45 20          	mov    rax,QWORD PTR [rbp+0x20]
   140001fb4:	48 01 d0             	add    rax,rdx
   140001fb7:	48 89 45 d8          	mov    QWORD PTR [rbp-0x28],rax
   140001fbb:	48 8b 45 d8          	mov    rax,QWORD PTR [rbp-0x28]
   140001fbf:	48 8b 00             	mov    rax,QWORD PTR [rax]
   140001fc2:	48 89 45 d8          	mov    QWORD PTR [rbp-0x28],rax
   140001fc6:	48 8b 45 f0          	mov    rax,QWORD PTR [rbp-0x10]
   140001fca:	8b 40 08             	mov    eax,DWORD PTR [rax+0x8]
   140001fcd:	0f b6 c0             	movzx  eax,al
   140001fd0:	83 f8 40             	cmp    eax,0x40
   140001fd3:	0f 84 b6 00 00 00    	je     14000208f <do_pseudo_reloc+0x1fd>
   140001fd9:	83 f8 40             	cmp    eax,0x40
   140001fdc:	0f 87 ba 00 00 00    	ja     14000209c <do_pseudo_reloc+0x20a>
   140001fe2:	83 f8 20             	cmp    eax,0x20
   140001fe5:	74 77                	je     14000205e <do_pseudo_reloc+0x1cc>
   140001fe7:	83 f8 20             	cmp    eax,0x20
   140001fea:	0f 87 ac 00 00 00    	ja     14000209c <do_pseudo_reloc+0x20a>
   140001ff0:	83 f8 08             	cmp    eax,0x8
   140001ff3:	74 0a                	je     140001fff <do_pseudo_reloc+0x16d>
   140001ff5:	83 f8 10             	cmp    eax,0x10
   140001ff8:	74 38                	je     140002032 <do_pseudo_reloc+0x1a0>
   140001ffa:	e9 9d 00 00 00       	jmp    14000209c <do_pseudo_reloc+0x20a>
   140001fff:	48 8b 45 e0          	mov    rax,QWORD PTR [rbp-0x20]
   140002003:	0f b6 00             	movzx  eax,BYTE PTR [rax]
   140002006:	0f b6 c0             	movzx  eax,al
   140002009:	48 89 45 b8          	mov    QWORD PTR [rbp-0x48],rax
   14000200d:	48 8b 45 b8          	mov    rax,QWORD PTR [rbp-0x48]
   140002011:	25 80 00 00 00       	and    eax,0x80
   140002016:	48 85 c0             	test   rax,rax
   140002019:	0f 84 9d 00 00 00    	je     1400020bc <do_pseudo_reloc+0x22a>
   14000201f:	48 8b 45 b8          	mov    rax,QWORD PTR [rbp-0x48]
   140002023:	48 0d 00 ff ff ff    	or     rax,0xffffffffffffff00
   140002029:	48 89 45 b8          	mov    QWORD PTR [rbp-0x48],rax
   14000202d:	e9 8a 00 00 00       	jmp    1400020bc <do_pseudo_reloc+0x22a>
   140002032:	48 8b 45 e0          	mov    rax,QWORD PTR [rbp-0x20]
   140002036:	0f b7 00             	movzx  eax,WORD PTR [rax]
   140002039:	0f b7 c0             	movzx  eax,ax
   14000203c:	48 89 45 b8          	mov    QWORD PTR [rbp-0x48],rax
   140002040:	48 8b 45 b8          	mov    rax,QWORD PTR [rbp-0x48]
   140002044:	25 00 80 00 00       	and    eax,0x8000
   140002049:	48 85 c0             	test   rax,rax
   14000204c:	74 71                	je     1400020bf <do_pseudo_reloc+0x22d>
   14000204e:	48 8b 45 b8          	mov    rax,QWORD PTR [rbp-0x48]
   140002052:	48 0d 00 00 ff ff    	or     rax,0xffffffffffff0000
   140002058:	48 89 45 b8          	mov    QWORD PTR [rbp-0x48],rax
   14000205c:	eb 61                	jmp    1400020bf <do_pseudo_reloc+0x22d>
   14000205e:	48 8b 45 e0          	mov    rax,QWORD PTR [rbp-0x20]
   140002062:	8b 00                	mov    eax,DWORD PTR [rax]
   140002064:	89 c0                	mov    eax,eax
   140002066:	48 89 45 b8          	mov    QWORD PTR [rbp-0x48],rax
   14000206a:	48 8b 45 b8          	mov    rax,QWORD PTR [rbp-0x48]
   14000206e:	25 00 00 00 80       	and    eax,0x80000000
   140002073:	48 85 c0             	test   rax,rax
   140002076:	74 4a                	je     1400020c2 <do_pseudo_reloc+0x230>
   140002078:	48 8b 45 b8          	mov    rax,QWORD PTR [rbp-0x48]
   14000207c:	48 ba 00 00 00 00 ff 	movabs rdx,0xffffffff00000000
   140002083:	ff ff ff 
   140002086:	48 09 d0             	or     rax,rdx
   140002089:	48 89 45 b8          	mov    QWORD PTR [rbp-0x48],rax
   14000208d:	eb 33                	jmp    1400020c2 <do_pseudo_reloc+0x230>
   14000208f:	48 8b 45 e0          	mov    rax,QWORD PTR [rbp-0x20]
   140002093:	48 8b 00             	mov    rax,QWORD PTR [rax]
   140002096:	48 89 45 b8          	mov    QWORD PTR [rbp-0x48],rax
   14000209a:	eb 27                	jmp    1400020c3 <do_pseudo_reloc+0x231>
   14000209c:	48 c7 45 b8 00 00 00 	mov    QWORD PTR [rbp-0x48],0x0
   1400020a3:	00 
   1400020a4:	48 8b 45 f0          	mov    rax,QWORD PTR [rbp-0x10]
   1400020a8:	8b 40 08             	mov    eax,DWORD PTR [rax+0x8]
   1400020ab:	0f b6 c0             	movzx  eax,al
   1400020ae:	48 8d 0d 13 92 00 00 	lea    rcx,[rip+0x9213]        # 14000b2c8 <.rdata+0xd8>
   1400020b5:	89 c2                	mov    edx,eax
   1400020b7:	e8 74 f9 ff ff       	call   140001a30 <__report_error>
   1400020bc:	90                   	nop
   1400020bd:	eb 04                	jmp    1400020c3 <do_pseudo_reloc+0x231>
   1400020bf:	90                   	nop
   1400020c0:	eb 01                	jmp    1400020c3 <do_pseudo_reloc+0x231>
   1400020c2:	90                   	nop
   1400020c3:	48 8b 4d b8          	mov    rcx,QWORD PTR [rbp-0x48]
   1400020c7:	48 8b 45 f0          	mov    rax,QWORD PTR [rbp-0x10]
   1400020cb:	8b 00                	mov    eax,DWORD PTR [rax]
   1400020cd:	89 c2                	mov    edx,eax
   1400020cf:	48 8b 45 20          	mov    rax,QWORD PTR [rbp+0x20]
   1400020d3:	48 01 c2             	add    rdx,rax
   1400020d6:	48 89 c8             	mov    rax,rcx
   1400020d9:	48 29 d0             	sub    rax,rdx
   1400020dc:	48 89 45 b8          	mov    QWORD PTR [rbp-0x48],rax
   1400020e0:	48 8b 55 b8          	mov    rdx,QWORD PTR [rbp-0x48]
   1400020e4:	48 8b 45 d8          	mov    rax,QWORD PTR [rbp-0x28]
   1400020e8:	48 01 d0             	add    rax,rdx
   1400020eb:	48 89 45 b8          	mov    QWORD PTR [rbp-0x48],rax
   1400020ef:	48 8b 45 f0          	mov    rax,QWORD PTR [rbp-0x10]
   1400020f3:	8b 40 08             	mov    eax,DWORD PTR [rax+0x8]
   1400020f6:	25 ff 00 00 00       	and    eax,0xff
   1400020fb:	89 45 d4             	mov    DWORD PTR [rbp-0x2c],eax
   1400020fe:	83 7d d4 3f          	cmp    DWORD PTR [rbp-0x2c],0x3f
   140002102:	77 67                	ja     14000216b <do_pseudo_reloc+0x2d9>
   140002104:	8b 45 d4             	mov    eax,DWORD PTR [rbp-0x2c]
   140002107:	ba 01 00 00 00       	mov    edx,0x1
   14000210c:	89 c1                	mov    ecx,eax
   14000210e:	48 d3 e2             	shl    rdx,cl
   140002111:	48 89 d0             	mov    rax,rdx
   140002114:	48 83 e8 01          	sub    rax,0x1
   140002118:	48 89 45 c8          	mov    QWORD PTR [rbp-0x38],rax
   14000211c:	8b 45 d4             	mov    eax,DWORD PTR [rbp-0x2c]
   14000211f:	83 e8 01             	sub    eax,0x1
   140002122:	48 c7 c2 ff ff ff ff 	mov    rdx,0xffffffffffffffff
   140002129:	89 c1                	mov    ecx,eax
   14000212b:	48 d3 e2             	shl    rdx,cl
   14000212e:	48 89 d0             	mov    rax,rdx
   140002131:	48 89 45 c0          	mov    QWORD PTR [rbp-0x40],rax
   140002135:	48 8b 45 b8          	mov    rax,QWORD PTR [rbp-0x48]
   140002139:	48 39 45 c8          	cmp    QWORD PTR [rbp-0x38],rax
   14000213d:	7c 0a                	jl     140002149 <do_pseudo_reloc+0x2b7>
   14000213f:	48 8b 45 b8          	mov    rax,QWORD PTR [rbp-0x48]
   140002143:	48 39 45 c0          	cmp    QWORD PTR [rbp-0x40],rax
   140002147:	7e 22                	jle    14000216b <do_pseudo_reloc+0x2d9>
   140002149:	48 8b 55 b8          	mov    rdx,QWORD PTR [rbp-0x48]
   14000214d:	4c 8b 4d d8          	mov    r9,QWORD PTR [rbp-0x28]
   140002151:	4c 8b 45 e0          	mov    r8,QWORD PTR [rbp-0x20]
   140002155:	8b 45 d4             	mov    eax,DWORD PTR [rbp-0x2c]
   140002158:	48 8d 0d 99 91 00 00 	lea    rcx,[rip+0x9199]        # 14000b2f8 <.rdata+0x108>
   14000215f:	48 89 54 24 20       	mov    QWORD PTR [rsp+0x20],rdx
   140002164:	89 c2                	mov    edx,eax
   140002166:	e8 c5 f8 ff ff       	call   140001a30 <__report_error>
   14000216b:	48 8b 45 f0          	mov    rax,QWORD PTR [rbp-0x10]
   14000216f:	8b 40 08             	mov    eax,DWORD PTR [rax+0x8]
   140002172:	0f b6 c0             	movzx  eax,al
   140002175:	83 f8 40             	cmp    eax,0x40
   140002178:	74 63                	je     1400021dd <do_pseudo_reloc+0x34b>
   14000217a:	83 f8 40             	cmp    eax,0x40
   14000217d:	77 75                	ja     1400021f4 <do_pseudo_reloc+0x362>
   14000217f:	83 f8 20             	cmp    eax,0x20
   140002182:	74 41                	je     1400021c5 <do_pseudo_reloc+0x333>
   140002184:	83 f8 20             	cmp    eax,0x20
   140002187:	77 6b                	ja     1400021f4 <do_pseudo_reloc+0x362>
   140002189:	83 f8 08             	cmp    eax,0x8
   14000218c:	74 07                	je     140002195 <do_pseudo_reloc+0x303>
   14000218e:	83 f8 10             	cmp    eax,0x10
   140002191:	74 1a                	je     1400021ad <do_pseudo_reloc+0x31b>
   140002193:	eb 5f                	jmp    1400021f4 <do_pseudo_reloc+0x362>
   140002195:	48 8b 45 e0          	mov    rax,QWORD PTR [rbp-0x20]
   140002199:	48 8d 55 b8          	lea    rdx,[rbp-0x48]
   14000219d:	41 b8 01 00 00 00    	mov    r8d,0x1
   1400021a3:	48 89 c1             	mov    rcx,rax
   1400021a6:	e8 a0 fc ff ff       	call   140001e4b <__write_memory>
   1400021ab:	eb 47                	jmp    1400021f4 <do_pseudo_reloc+0x362>
   1400021ad:	48 8b 45 e0          	mov    rax,QWORD PTR [rbp-0x20]
   1400021b1:	48 8d 55 b8          	lea    rdx,[rbp-0x48]
   1400021b5:	41 b8 02 00 00 00    	mov    r8d,0x2
   1400021bb:	48 89 c1             	mov    rcx,rax
   1400021be:	e8 88 fc ff ff       	call   140001e4b <__write_memory>
   1400021c3:	eb 2f                	jmp    1400021f4 <do_pseudo_reloc+0x362>
   1400021c5:	48 8b 45 e0          	mov    rax,QWORD PTR [rbp-0x20]
   1400021c9:	48 8d 55 b8          	lea    rdx,[rbp-0x48]
   1400021cd:	41 b8 04 00 00 00    	mov    r8d,0x4
   1400021d3:	48 89 c1             	mov    rcx,rax
   1400021d6:	e8 70 fc ff ff       	call   140001e4b <__write_memory>
   1400021db:	eb 17                	jmp    1400021f4 <do_pseudo_reloc+0x362>
   1400021dd:	48 8b 45 e0          	mov    rax,QWORD PTR [rbp-0x20]
   1400021e1:	48 8d 55 b8          	lea    rdx,[rbp-0x48]
   1400021e5:	41 b8 08 00 00 00    	mov    r8d,0x8
   1400021eb:	48 89 c1             	mov    rcx,rax
   1400021ee:	e8 58 fc ff ff       	call   140001e4b <__write_memory>
   1400021f3:	90                   	nop
   1400021f4:	48 83 45 f0 0c       	add    QWORD PTR [rbp-0x10],0xc
   1400021f9:	48 8b 45 f0          	mov    rax,QWORD PTR [rbp-0x10]
   1400021fd:	48 3b 45 18          	cmp    rax,QWORD PTR [rbp+0x18]
   140002201:	0f 82 8d fd ff ff    	jb     140001f94 <do_pseudo_reloc+0x102>
   140002207:	eb 01                	jmp    14000220a <do_pseudo_reloc+0x378>
   140002209:	90                   	nop
   14000220a:	48 83 ec 80          	sub    rsp,0xffffffffffffff80
   14000220e:	5d                   	pop    rbp
   14000220f:	c3                   	ret

0000000140002210 <_pei386_runtime_relocator>:
   140002210:	55                   	push   rbp
   140002211:	48 89 e5             	mov    rbp,rsp
   140002214:	48 83 ec 30          	sub    rsp,0x30
   140002218:	8b 05 ce de 00 00    	mov    eax,DWORD PTR [rip+0xdece]        # 1400100ec <was_init.0>
   14000221e:	85 c0                	test   eax,eax
   140002220:	0f 85 88 00 00 00    	jne    1400022ae <_pei386_runtime_relocator+0x9e>
   140002226:	8b 05 c0 de 00 00    	mov    eax,DWORD PTR [rip+0xdec0]        # 1400100ec <was_init.0>
   14000222c:	83 c0 01             	add    eax,0x1
   14000222f:	89 05 b7 de 00 00    	mov    DWORD PTR [rip+0xdeb7],eax        # 1400100ec <was_init.0>
   140002235:	e8 e1 08 00 00       	call   140002b1b <__mingw_GetSectionCount>
   14000223a:	89 45 fc             	mov    DWORD PTR [rbp-0x4],eax
   14000223d:	8b 45 fc             	mov    eax,DWORD PTR [rbp-0x4]
   140002240:	48 63 d0             	movsxd rdx,eax
   140002243:	48 89 d0             	mov    rax,rdx
   140002246:	48 c1 e0 02          	shl    rax,0x2
   14000224a:	48 01 d0             	add    rax,rdx
   14000224d:	48 c1 e0 03          	shl    rax,0x3
   140002251:	48 83 c0 0f          	add    rax,0xf
   140002255:	48 c1 e8 04          	shr    rax,0x4
   140002259:	48 c1 e0 04          	shl    rax,0x4
   14000225d:	e8 3e 0b 00 00       	call   140002da0 <___chkstk_ms>
   140002262:	48 29 c4             	sub    rsp,rax
   140002265:	48 8d 44 24 20       	lea    rax,[rsp+0x20]
   14000226a:	48 83 c0 0f          	add    rax,0xf
   14000226e:	48 c1 e8 04          	shr    rax,0x4
   140002272:	48 c1 e0 04          	shl    rax,0x4
   140002276:	48 89 05 63 de 00 00 	mov    QWORD PTR [rip+0xde63],rax        # 1400100e0 <the_secs>
   14000227d:	c7 05 61 de 00 00 00 	mov    DWORD PTR [rip+0xde61],0x0        # 1400100e8 <maxSections>
   140002284:	00 00 00 
   140002287:	48 8b 0d e2 92 00 00 	mov    rcx,QWORD PTR [rip+0x92e2]        # 14000b570 <.refptr.__ImageBase>
   14000228e:	48 8b 15 eb 92 00 00 	mov    rdx,QWORD PTR [rip+0x92eb]        # 14000b580 <.refptr.__RUNTIME_PSEUDO_RELOC_LIST_END__>
   140002295:	48 8b 05 f4 92 00 00 	mov    rax,QWORD PTR [rip+0x92f4]        # 14000b590 <.refptr.__RUNTIME_PSEUDO_RELOC_LIST__>
   14000229c:	49 89 c8             	mov    r8,rcx
   14000229f:	48 89 c1             	mov    rcx,rax
   1400022a2:	e8 eb fb ff ff       	call   140001e92 <do_pseudo_reloc>
   1400022a7:	e8 c7 fa ff ff       	call   140001d73 <restore_modified_sections>
   1400022ac:	eb 01                	jmp    1400022af <_pei386_runtime_relocator+0x9f>
   1400022ae:	90                   	nop
   1400022af:	48 89 ec             	mov    rsp,rbp
   1400022b2:	5d                   	pop    rbp
   1400022b3:	c3                   	ret
   1400022b4:	90                   	nop
   1400022b5:	90                   	nop
   1400022b6:	90                   	nop
   1400022b7:	90                   	nop
   1400022b8:	90                   	nop
   1400022b9:	90                   	nop
   1400022ba:	90                   	nop
   1400022bb:	90                   	nop
   1400022bc:	90                   	nop
   1400022bd:	90                   	nop
   1400022be:	90                   	nop
   1400022bf:	90                   	nop

00000001400022c0 <__mingw_raise_matherr>:
   1400022c0:	55                   	push   rbp
   1400022c1:	48 89 e5             	mov    rbp,rsp
   1400022c4:	48 83 ec 50          	sub    rsp,0x50
   1400022c8:	89 4d 10             	mov    DWORD PTR [rbp+0x10],ecx
   1400022cb:	48 89 55 18          	mov    QWORD PTR [rbp+0x18],rdx
   1400022cf:	f2 0f 11 55 20       	movsd  QWORD PTR [rbp+0x20],xmm2
   1400022d4:	f2 0f 11 5d 28       	movsd  QWORD PTR [rbp+0x28],xmm3
   1400022d9:	48 8b 05 10 de 00 00 	mov    rax,QWORD PTR [rip+0xde10]        # 1400100f0 <stUserMathErr>
   1400022e0:	48 85 c0             	test   rax,rax
   1400022e3:	74 3e                	je     140002323 <__mingw_raise_matherr+0x63>
   1400022e5:	8b 45 10             	mov    eax,DWORD PTR [rbp+0x10]
   1400022e8:	89 45 d0             	mov    DWORD PTR [rbp-0x30],eax
   1400022eb:	48 8b 45 18          	mov    rax,QWORD PTR [rbp+0x18]
   1400022ef:	48 89 45 d8          	mov    QWORD PTR [rbp-0x28],rax
   1400022f3:	f2 0f 10 45 20       	movsd  xmm0,QWORD PTR [rbp+0x20]
   1400022f8:	f2 0f 11 45 e0       	movsd  QWORD PTR [rbp-0x20],xmm0
   1400022fd:	f2 0f 10 45 28       	movsd  xmm0,QWORD PTR [rbp+0x28]
   140002302:	f2 0f 11 45 e8       	movsd  QWORD PTR [rbp-0x18],xmm0
   140002307:	f2 0f 10 45 30       	movsd  xmm0,QWORD PTR [rbp+0x30]
   14000230c:	f2 0f 11 45 f0       	movsd  QWORD PTR [rbp-0x10],xmm0
   140002311:	48 8b 15 d8 dd 00 00 	mov    rdx,QWORD PTR [rip+0xddd8]        # 1400100f0 <stUserMathErr>
   140002318:	48 8d 45 d0          	lea    rax,[rbp-0x30]
   14000231c:	48 89 c1             	mov    rcx,rax
   14000231f:	ff d2                	call   rdx
   140002321:	eb 01                	jmp    140002324 <__mingw_raise_matherr+0x64>
   140002323:	90                   	nop
   140002324:	48 83 c4 50          	add    rsp,0x50
   140002328:	5d                   	pop    rbp
   140002329:	c3                   	ret

000000014000232a <__mingw_setusermatherr>:
   14000232a:	55                   	push   rbp
   14000232b:	48 89 e5             	mov    rbp,rsp
   14000232e:	48 83 ec 20          	sub    rsp,0x20
   140002332:	48 89 4d 10          	mov    QWORD PTR [rbp+0x10],rcx
   140002336:	48 8b 45 10          	mov    rax,QWORD PTR [rbp+0x10]
   14000233a:	48 89 05 af dd 00 00 	mov    QWORD PTR [rip+0xddaf],rax        # 1400100f0 <stUserMathErr>
   140002341:	48 8b 45 10          	mov    rax,QWORD PTR [rbp+0x10]
   140002345:	48 89 c1             	mov    rcx,rax
   140002348:	e8 33 70 00 00       	call   140009380 <__setusermatherr>
   14000234d:	90                   	nop
   14000234e:	48 83 c4 20          	add    rsp,0x20
   140002352:	5d                   	pop    rbp
   140002353:	c3                   	ret
   140002354:	90                   	nop
   140002355:	90                   	nop
   140002356:	90                   	nop
   140002357:	90                   	nop
   140002358:	90                   	nop
   140002359:	90                   	nop
   14000235a:	90                   	nop
   14000235b:	90                   	nop
   14000235c:	90                   	nop
   14000235d:	90                   	nop
   14000235e:	90                   	nop
   14000235f:	90                   	nop

0000000140002360 <_gnu_exception_handler>:
   140002360:	55                   	push   rbp
   140002361:	48 89 e5             	mov    rbp,rsp
   140002364:	48 83 ec 30          	sub    rsp,0x30
   140002368:	48 89 4d 10          	mov    QWORD PTR [rbp+0x10],rcx
   14000236c:	c7 45 fc 00 00 00 00 	mov    DWORD PTR [rbp-0x4],0x0
   140002373:	c7 45 f8 00 00 00 00 	mov    DWORD PTR [rbp-0x8],0x0
   14000237a:	48 8b 45 10          	mov    rax,QWORD PTR [rbp+0x10]
   14000237e:	48 8b 00             	mov    rax,QWORD PTR [rax]
   140002381:	8b 00                	mov    eax,DWORD PTR [rax]
   140002383:	25 ff ff ff 20       	and    eax,0x20ffffff
   140002388:	3d 43 43 47 20       	cmp    eax,0x20474343
   14000238d:	75 1b                	jne    1400023aa <_gnu_exception_handler+0x4a>
   14000238f:	48 8b 45 10          	mov    rax,QWORD PTR [rbp+0x10]
   140002393:	48 8b 00             	mov    rax,QWORD PTR [rax]
   140002396:	8b 40 04             	mov    eax,DWORD PTR [rax+0x4]
   140002399:	83 e0 01             	and    eax,0x1
   14000239c:	85 c0                	test   eax,eax
   14000239e:	75 0a                	jne    1400023aa <_gnu_exception_handler+0x4a>
   1400023a0:	b8 ff ff ff ff       	mov    eax,0xffffffff
   1400023a5:	e9 2a 02 00 00       	jmp    1400025d4 <_gnu_exception_handler+0x274>
   1400023aa:	48 8b 45 10          	mov    rax,QWORD PTR [rbp+0x10]
   1400023ae:	48 8b 00             	mov    rax,QWORD PTR [rax]
   1400023b1:	8b 00                	mov    eax,DWORD PTR [rax]
   1400023b3:	3d 96 00 00 c0       	cmp    eax,0xc0000096
   1400023b8:	0f 84 28 01 00 00    	je     1400024e6 <_gnu_exception_handler+0x186>
   1400023be:	3d 96 00 00 c0       	cmp    eax,0xc0000096
   1400023c3:	0f 87 d9 01 00 00    	ja     1400025a2 <_gnu_exception_handler+0x242>
   1400023c9:	3d 95 00 00 c0       	cmp    eax,0xc0000095
   1400023ce:	0f 84 c5 01 00 00    	je     140002599 <_gnu_exception_handler+0x239>
   1400023d4:	3d 95 00 00 c0       	cmp    eax,0xc0000095
   1400023d9:	0f 87 c3 01 00 00    	ja     1400025a2 <_gnu_exception_handler+0x242>
   1400023df:	3d 94 00 00 c0       	cmp    eax,0xc0000094
   1400023e4:	0f 84 57 01 00 00    	je     140002541 <_gnu_exception_handler+0x1e1>
   1400023ea:	3d 94 00 00 c0       	cmp    eax,0xc0000094
   1400023ef:	0f 87 ad 01 00 00    	ja     1400025a2 <_gnu_exception_handler+0x242>
   1400023f5:	3d 93 00 00 c0       	cmp    eax,0xc0000093
   1400023fa:	0f 84 3a 01 00 00    	je     14000253a <_gnu_exception_handler+0x1da>
   140002400:	3d 93 00 00 c0       	cmp    eax,0xc0000093
   140002405:	0f 87 97 01 00 00    	ja     1400025a2 <_gnu_exception_handler+0x242>
   14000240b:	3d 92 00 00 c0       	cmp    eax,0xc0000092
   140002410:	0f 84 83 01 00 00    	je     140002599 <_gnu_exception_handler+0x239>
   140002416:	3d 92 00 00 c0       	cmp    eax,0xc0000092
   14000241b:	0f 87 81 01 00 00    	ja     1400025a2 <_gnu_exception_handler+0x242>
   140002421:	3d 91 00 00 c0       	cmp    eax,0xc0000091
   140002426:	0f 87 76 01 00 00    	ja     1400025a2 <_gnu_exception_handler+0x242>
   14000242c:	3d 8d 00 00 c0       	cmp    eax,0xc000008d
   140002431:	0f 83 03 01 00 00    	jae    14000253a <_gnu_exception_handler+0x1da>
   140002437:	3d 8c 00 00 c0       	cmp    eax,0xc000008c
   14000243c:	0f 84 57 01 00 00    	je     140002599 <_gnu_exception_handler+0x239>
   140002442:	3d 8c 00 00 c0       	cmp    eax,0xc000008c
   140002447:	0f 87 55 01 00 00    	ja     1400025a2 <_gnu_exception_handler+0x242>
   14000244d:	3d 1d 00 00 c0       	cmp    eax,0xc000001d
   140002452:	0f 84 8e 00 00 00    	je     1400024e6 <_gnu_exception_handler+0x186>
   140002458:	3d 1d 00 00 c0       	cmp    eax,0xc000001d
   14000245d:	0f 87 3f 01 00 00    	ja     1400025a2 <_gnu_exception_handler+0x242>
   140002463:	3d 08 00 00 c0       	cmp    eax,0xc0000008
   140002468:	0f 84 2b 01 00 00    	je     140002599 <_gnu_exception_handler+0x239>
   14000246e:	3d 08 00 00 c0       	cmp    eax,0xc0000008
   140002473:	0f 87 29 01 00 00    	ja     1400025a2 <_gnu_exception_handler+0x242>
   140002479:	3d 02 00 00 80       	cmp    eax,0x80000002
   14000247e:	0f 84 15 01 00 00    	je     140002599 <_gnu_exception_handler+0x239>
   140002484:	3d 05 00 00 c0       	cmp    eax,0xc0000005
   140002489:	0f 85 13 01 00 00    	jne    1400025a2 <_gnu_exception_handler+0x242>
   14000248f:	ba 00 00 00 00       	mov    edx,0x0
   140002494:	b9 0b 00 00 00       	mov    ecx,0xb
   140002499:	e8 6a 6f 00 00       	call   140009408 <signal>
   14000249e:	48 89 45 f0          	mov    QWORD PTR [rbp-0x10],rax
   1400024a2:	48 83 7d f0 01       	cmp    QWORD PTR [rbp-0x10],0x1
   1400024a7:	75 1b                	jne    1400024c4 <_gnu_exception_handler+0x164>
   1400024a9:	ba 01 00 00 00       	mov    edx,0x1
   1400024ae:	b9 0b 00 00 00       	mov    ecx,0xb
   1400024b3:	e8 50 6f 00 00       	call   140009408 <signal>
   1400024b8:	c7 45 fc ff ff ff ff 	mov    DWORD PTR [rbp-0x4],0xffffffff
   1400024bf:	e9 e1 00 00 00       	jmp    1400025a5 <_gnu_exception_handler+0x245>
   1400024c4:	48 83 7d f0 00       	cmp    QWORD PTR [rbp-0x10],0x0
   1400024c9:	0f 84 d6 00 00 00    	je     1400025a5 <_gnu_exception_handler+0x245>
   1400024cf:	48 8b 45 f0          	mov    rax,QWORD PTR [rbp-0x10]
   1400024d3:	b9 0b 00 00 00       	mov    ecx,0xb
   1400024d8:	ff d0                	call   rax
   1400024da:	c7 45 fc ff ff ff ff 	mov    DWORD PTR [rbp-0x4],0xffffffff
   1400024e1:	e9 bf 00 00 00       	jmp    1400025a5 <_gnu_exception_handler+0x245>
   1400024e6:	ba 00 00 00 00       	mov    edx,0x0
   1400024eb:	b9 04 00 00 00       	mov    ecx,0x4
   1400024f0:	e8 13 6f 00 00       	call   140009408 <signal>
   1400024f5:	48 89 45 f0          	mov    QWORD PTR [rbp-0x10],rax
   1400024f9:	48 83 7d f0 01       	cmp    QWORD PTR [rbp-0x10],0x1
   1400024fe:	75 1b                	jne    14000251b <_gnu_exception_handler+0x1bb>
   140002500:	ba 01 00 00 00       	mov    edx,0x1
   140002505:	b9 04 00 00 00       	mov    ecx,0x4
   14000250a:	e8 f9 6e 00 00       	call   140009408 <signal>
   14000250f:	c7 45 fc ff ff ff ff 	mov    DWORD PTR [rbp-0x4],0xffffffff
   140002516:	e9 8d 00 00 00       	jmp    1400025a8 <_gnu_exception_handler+0x248>
   14000251b:	48 83 7d f0 00       	cmp    QWORD PTR [rbp-0x10],0x0
   140002520:	0f 84 82 00 00 00    	je     1400025a8 <_gnu_exception_handler+0x248>
   140002526:	48 8b 45 f0          	mov    rax,QWORD PTR [rbp-0x10]
   14000252a:	b9 04 00 00 00       	mov    ecx,0x4
   14000252f:	ff d0                	call   rax
   140002531:	c7 45 fc ff ff ff ff 	mov    DWORD PTR [rbp-0x4],0xffffffff
   140002538:	eb 6e                	jmp    1400025a8 <_gnu_exception_handler+0x248>
   14000253a:	c7 45 f8 01 00 00 00 	mov    DWORD PTR [rbp-0x8],0x1
   140002541:	ba 00 00 00 00       	mov    edx,0x0
   140002546:	b9 08 00 00 00       	mov    ecx,0x8
   14000254b:	e8 b8 6e 00 00       	call   140009408 <signal>
   140002550:	48 89 45 f0          	mov    QWORD PTR [rbp-0x10],rax
   140002554:	48 83 7d f0 01       	cmp    QWORD PTR [rbp-0x10],0x1
   140002559:	75 23                	jne    14000257e <_gnu_exception_handler+0x21e>
   14000255b:	ba 01 00 00 00       	mov    edx,0x1
   140002560:	b9 08 00 00 00       	mov    ecx,0x8
   140002565:	e8 9e 6e 00 00       	call   140009408 <signal>
   14000256a:	83 7d f8 00          	cmp    DWORD PTR [rbp-0x8],0x0
   14000256e:	74 05                	je     140002575 <_gnu_exception_handler+0x215>
   140002570:	e8 6b 03 00 00       	call   1400028e0 <_fpreset>
   140002575:	c7 45 fc ff ff ff ff 	mov    DWORD PTR [rbp-0x4],0xffffffff
   14000257c:	eb 2d                	jmp    1400025ab <_gnu_exception_handler+0x24b>
   14000257e:	48 83 7d f0 00       	cmp    QWORD PTR [rbp-0x10],0x0
   140002583:	74 26                	je     1400025ab <_gnu_exception_handler+0x24b>
   140002585:	48 8b 45 f0          	mov    rax,QWORD PTR [rbp-0x10]
   140002589:	b9 08 00 00 00       	mov    ecx,0x8
   14000258e:	ff d0                	call   rax
   140002590:	c7 45 fc ff ff ff ff 	mov    DWORD PTR [rbp-0x4],0xffffffff
   140002597:	eb 12                	jmp    1400025ab <_gnu_exception_handler+0x24b>
   140002599:	c7 45 fc ff ff ff ff 	mov    DWORD PTR [rbp-0x4],0xffffffff
   1400025a0:	eb 0a                	jmp    1400025ac <_gnu_exception_handler+0x24c>
   1400025a2:	90                   	nop
   1400025a3:	eb 07                	jmp    1400025ac <_gnu_exception_handler+0x24c>
   1400025a5:	90                   	nop
   1400025a6:	eb 04                	jmp    1400025ac <_gnu_exception_handler+0x24c>
   1400025a8:	90                   	nop
   1400025a9:	eb 01                	jmp    1400025ac <_gnu_exception_handler+0x24c>
   1400025ab:	90                   	nop
   1400025ac:	83 7d fc 00          	cmp    DWORD PTR [rbp-0x4],0x0
   1400025b0:	75 1f                	jne    1400025d1 <_gnu_exception_handler+0x271>
   1400025b2:	48 8b 05 57 db 00 00 	mov    rax,QWORD PTR [rip+0xdb57]        # 140010110 <__mingw_oldexcpt_handler>
   1400025b9:	48 85 c0             	test   rax,rax
   1400025bc:	74 13                	je     1400025d1 <_gnu_exception_handler+0x271>
   1400025be:	48 8b 15 4b db 00 00 	mov    rdx,QWORD PTR [rip+0xdb4b]        # 140010110 <__mingw_oldexcpt_handler>
   1400025c5:	48 8b 45 10          	mov    rax,QWORD PTR [rbp+0x10]
   1400025c9:	48 89 c1             	mov    rcx,rax
   1400025cc:	ff d2                	call   rdx
   1400025ce:	89 45 fc             	mov    DWORD PTR [rbp-0x4],eax
   1400025d1:	8b 45 fc             	mov    eax,DWORD PTR [rbp-0x4]
   1400025d4:	48 83 c4 30          	add    rsp,0x30
   1400025d8:	5d                   	pop    rbp
   1400025d9:	c3                   	ret
   1400025da:	90                   	nop
   1400025db:	90                   	nop
   1400025dc:	90                   	nop
   1400025dd:	90                   	nop
   1400025de:	90                   	nop
   1400025df:	90                   	nop

00000001400025e0 <___w64_mingwthr_add_key_dtor>:
   1400025e0:	55                   	push   rbp
   1400025e1:	48 89 e5             	mov    rbp,rsp
   1400025e4:	48 83 ec 30          	sub    rsp,0x30
   1400025e8:	89 4d 10             	mov    DWORD PTR [rbp+0x10],ecx
   1400025eb:	48 89 55 18          	mov    QWORD PTR [rbp+0x18],rdx
   1400025ef:	8b 05 53 db 00 00    	mov    eax,DWORD PTR [rip+0xdb53]        # 140010148 <__mingwthr_cs_init>
   1400025f5:	85 c0                	test   eax,eax
   1400025f7:	75 07                	jne    140002600 <___w64_mingwthr_add_key_dtor+0x20>
   1400025f9:	b8 00 00 00 00       	mov    eax,0x0
   1400025fe:	eb 7b                	jmp    14000267b <___w64_mingwthr_add_key_dtor+0x9b>
   140002600:	ba 18 00 00 00       	mov    edx,0x18
   140002605:	b9 01 00 00 00       	mov    ecx,0x1
   14000260a:	e8 b9 6d 00 00       	call   1400093c8 <calloc>
   14000260f:	48 89 45 f8          	mov    QWORD PTR [rbp-0x8],rax
   140002613:	48 83 7d f8 00       	cmp    QWORD PTR [rbp-0x8],0x0
   140002618:	75 07                	jne    140002621 <___w64_mingwthr_add_key_dtor+0x41>
   14000261a:	b8 ff ff ff ff       	mov    eax,0xffffffff
   14000261f:	eb 5a                	jmp    14000267b <___w64_mingwthr_add_key_dtor+0x9b>
   140002621:	48 8b 45 f8          	mov    rax,QWORD PTR [rbp-0x8]
   140002625:	8b 55 10             	mov    edx,DWORD PTR [rbp+0x10]
   140002628:	89 10                	mov    DWORD PTR [rax],edx
   14000262a:	48 8b 45 f8          	mov    rax,QWORD PTR [rbp-0x8]
   14000262e:	48 8b 55 18          	mov    rdx,QWORD PTR [rbp+0x18]
   140002632:	48 89 50 08          	mov    QWORD PTR [rax+0x8],rdx
   140002636:	48 8d 05 e3 da 00 00 	lea    rax,[rip+0xdae3]        # 140010120 <__mingwthr_cs>
   14000263d:	48 89 c1             	mov    rcx,rax
   140002640:	48 8b 05 99 eb 00 00 	mov    rax,QWORD PTR [rip+0xeb99]        # 1400111e0 <__imp_EnterCriticalSection>
   140002647:	ff d0                	call   rax
   140002649:	48 8b 15 00 db 00 00 	mov    rdx,QWORD PTR [rip+0xdb00]        # 140010150 <key_dtor_list>
   140002650:	48 8b 45 f8          	mov    rax,QWORD PTR [rbp-0x8]
   140002654:	48 89 50 10          	mov    QWORD PTR [rax+0x10],rdx
   140002658:	48 8b 45 f8          	mov    rax,QWORD PTR [rbp-0x8]
   14000265c:	48 89 05 ed da 00 00 	mov    QWORD PTR [rip+0xdaed],rax        # 140010150 <key_dtor_list>
   140002663:	48 8d 05 b6 da 00 00 	lea    rax,[rip+0xdab6]        # 140010120 <__mingwthr_cs>
   14000266a:	48 89 c1             	mov    rcx,rax
   14000266d:	48 8b 05 a4 eb 00 00 	mov    rax,QWORD PTR [rip+0xeba4]        # 140011218 <__imp_LeaveCriticalSection>
   140002674:	ff d0                	call   rax
   140002676:	b8 00 00 00 00       	mov    eax,0x0
   14000267b:	48 83 c4 30          	add    rsp,0x30
   14000267f:	5d                   	pop    rbp
   140002680:	c3                   	ret

0000000140002681 <___w64_mingwthr_remove_key_dtor>:
   140002681:	55                   	push   rbp
   140002682:	48 89 e5             	mov    rbp,rsp
   140002685:	48 83 ec 30          	sub    rsp,0x30
   140002689:	89 4d 10             	mov    DWORD PTR [rbp+0x10],ecx
   14000268c:	8b 05 b6 da 00 00    	mov    eax,DWORD PTR [rip+0xdab6]        # 140010148 <__mingwthr_cs_init>
   140002692:	85 c0                	test   eax,eax
   140002694:	75 0a                	jne    1400026a0 <___w64_mingwthr_remove_key_dtor+0x1f>
   140002696:	b8 00 00 00 00       	mov    eax,0x0
   14000269b:	e9 9c 00 00 00       	jmp    14000273c <___w64_mingwthr_remove_key_dtor+0xbb>
   1400026a0:	48 8d 05 79 da 00 00 	lea    rax,[rip+0xda79]        # 140010120 <__mingwthr_cs>
   1400026a7:	48 89 c1             	mov    rcx,rax
   1400026aa:	48 8b 05 2f eb 00 00 	mov    rax,QWORD PTR [rip+0xeb2f]        # 1400111e0 <__imp_EnterCriticalSection>
   1400026b1:	ff d0                	call   rax
   1400026b3:	48 c7 45 f8 00 00 00 	mov    QWORD PTR [rbp-0x8],0x0
   1400026ba:	00 
   1400026bb:	48 8b 05 8e da 00 00 	mov    rax,QWORD PTR [rip+0xda8e]        # 140010150 <key_dtor_list>
   1400026c2:	48 89 45 f0          	mov    QWORD PTR [rbp-0x10],rax
   1400026c6:	eb 55                	jmp    14000271d <___w64_mingwthr_remove_key_dtor+0x9c>
   1400026c8:	48 8b 45 f0          	mov    rax,QWORD PTR [rbp-0x10]
   1400026cc:	8b 00                	mov    eax,DWORD PTR [rax]
   1400026ce:	39 45 10             	cmp    DWORD PTR [rbp+0x10],eax
   1400026d1:	75 36                	jne    140002709 <___w64_mingwthr_remove_key_dtor+0x88>
   1400026d3:	48 83 7d f8 00       	cmp    QWORD PTR [rbp-0x8],0x0
   1400026d8:	75 11                	jne    1400026eb <___w64_mingwthr_remove_key_dtor+0x6a>
   1400026da:	48 8b 45 f0          	mov    rax,QWORD PTR [rbp-0x10]
   1400026de:	48 8b 40 10          	mov    rax,QWORD PTR [rax+0x10]
   1400026e2:	48 89 05 67 da 00 00 	mov    QWORD PTR [rip+0xda67],rax        # 140010150 <key_dtor_list>
   1400026e9:	eb 10                	jmp    1400026fb <___w64_mingwthr_remove_key_dtor+0x7a>
   1400026eb:	48 8b 45 f0          	mov    rax,QWORD PTR [rbp-0x10]
   1400026ef:	48 8b 50 10          	mov    rdx,QWORD PTR [rax+0x10]
   1400026f3:	48 8b 45 f8          	mov    rax,QWORD PTR [rbp-0x8]
   1400026f7:	48 89 50 10          	mov    QWORD PTR [rax+0x10],rdx
   1400026fb:	48 8b 45 f0          	mov    rax,QWORD PTR [rbp-0x10]
   1400026ff:	48 89 c1             	mov    rcx,rax
   140002702:	e8 e1 6c 00 00       	call   1400093e8 <free>
   140002707:	eb 1b                	jmp    140002724 <___w64_mingwthr_remove_key_dtor+0xa3>
   140002709:	48 8b 45 f0          	mov    rax,QWORD PTR [rbp-0x10]
   14000270d:	48 89 45 f8          	mov    QWORD PTR [rbp-0x8],rax
   140002711:	48 8b 45 f0          	mov    rax,QWORD PTR [rbp-0x10]
   140002715:	48 8b 40 10          	mov    rax,QWORD PTR [rax+0x10]
   140002719:	48 89 45 f0          	mov    QWORD PTR [rbp-0x10],rax
   14000271d:	48 83 7d f0 00       	cmp    QWORD PTR [rbp-0x10],0x0
   140002722:	75 a4                	jne    1400026c8 <___w64_mingwthr_remove_key_dtor+0x47>
   140002724:	48 8d 05 f5 d9 00 00 	lea    rax,[rip+0xd9f5]        # 140010120 <__mingwthr_cs>
   14000272b:	48 89 c1             	mov    rcx,rax
   14000272e:	48 8b 05 e3 ea 00 00 	mov    rax,QWORD PTR [rip+0xeae3]        # 140011218 <__imp_LeaveCriticalSection>
   140002735:	ff d0                	call   rax
   140002737:	b8 00 00 00 00       	mov    eax,0x0
   14000273c:	48 83 c4 30          	add    rsp,0x30
   140002740:	5d                   	pop    rbp
   140002741:	c3                   	ret

0000000140002742 <__mingwthr_run_key_dtors>:
   140002742:	55                   	push   rbp
   140002743:	48 89 e5             	mov    rbp,rsp
   140002746:	48 83 ec 30          	sub    rsp,0x30
   14000274a:	8b 05 f8 d9 00 00    	mov    eax,DWORD PTR [rip+0xd9f8]        # 140010148 <__mingwthr_cs_init>
   140002750:	85 c0                	test   eax,eax
   140002752:	0f 84 82 00 00 00    	je     1400027da <__mingwthr_run_key_dtors+0x98>
   140002758:	48 8d 05 c1 d9 00 00 	lea    rax,[rip+0xd9c1]        # 140010120 <__mingwthr_cs>
   14000275f:	48 89 c1             	mov    rcx,rax
   140002762:	48 8b 05 77 ea 00 00 	mov    rax,QWORD PTR [rip+0xea77]        # 1400111e0 <__imp_EnterCriticalSection>
   140002769:	ff d0                	call   rax
   14000276b:	48 8b 05 de d9 00 00 	mov    rax,QWORD PTR [rip+0xd9de]        # 140010150 <key_dtor_list>
   140002772:	48 89 45 f8          	mov    QWORD PTR [rbp-0x8],rax
   140002776:	eb 46                	jmp    1400027be <__mingwthr_run_key_dtors+0x7c>
   140002778:	48 8b 45 f8          	mov    rax,QWORD PTR [rbp-0x8]
   14000277c:	8b 00                	mov    eax,DWORD PTR [rax]
   14000277e:	89 c1                	mov    ecx,eax
   140002780:	48 8b 05 b9 ea 00 00 	mov    rax,QWORD PTR [rip+0xeab9]        # 140011240 <__imp_TlsGetValue>
   140002787:	ff d0                	call   rax
   140002789:	48 89 45 f0          	mov    QWORD PTR [rbp-0x10],rax
   14000278d:	48 8b 05 5c ea 00 00 	mov    rax,QWORD PTR [rip+0xea5c]        # 1400111f0 <__imp_GetLastError>
   140002794:	ff d0                	call   rax
   140002796:	85 c0                	test   eax,eax
   140002798:	75 18                	jne    1400027b2 <__mingwthr_run_key_dtors+0x70>
   14000279a:	48 83 7d f0 00       	cmp    QWORD PTR [rbp-0x10],0x0
   14000279f:	74 11                	je     1400027b2 <__mingwthr_run_key_dtors+0x70>
   1400027a1:	48 8b 45 f8          	mov    rax,QWORD PTR [rbp-0x8]
   1400027a5:	48 8b 50 08          	mov    rdx,QWORD PTR [rax+0x8]
   1400027a9:	48 8b 45 f0          	mov    rax,QWORD PTR [rbp-0x10]
   1400027ad:	48 89 c1             	mov    rcx,rax
   1400027b0:	ff d2                	call   rdx
   1400027b2:	48 8b 45 f8          	mov    rax,QWORD PTR [rbp-0x8]
   1400027b6:	48 8b 40 10          	mov    rax,QWORD PTR [rax+0x10]
   1400027ba:	48 89 45 f8          	mov    QWORD PTR [rbp-0x8],rax
   1400027be:	48 83 7d f8 00       	cmp    QWORD PTR [rbp-0x8],0x0
   1400027c3:	75 b3                	jne    140002778 <__mingwthr_run_key_dtors+0x36>
   1400027c5:	48 8d 05 54 d9 00 00 	lea    rax,[rip+0xd954]        # 140010120 <__mingwthr_cs>
   1400027cc:	48 89 c1             	mov    rcx,rax
   1400027cf:	48 8b 05 42 ea 00 00 	mov    rax,QWORD PTR [rip+0xea42]        # 140011218 <__imp_LeaveCriticalSection>
   1400027d6:	ff d0                	call   rax
   1400027d8:	eb 01                	jmp    1400027db <__mingwthr_run_key_dtors+0x99>
   1400027da:	90                   	nop
   1400027db:	48 83 c4 30          	add    rsp,0x30
   1400027df:	5d                   	pop    rbp
   1400027e0:	c3                   	ret

00000001400027e1 <__mingw_TLScallback>:
   1400027e1:	55                   	push   rbp
   1400027e2:	48 89 e5             	mov    rbp,rsp
   1400027e5:	48 83 ec 30          	sub    rsp,0x30
   1400027e9:	48 89 4d 10          	mov    QWORD PTR [rbp+0x10],rcx
   1400027ed:	89 55 18             	mov    DWORD PTR [rbp+0x18],edx
   1400027f0:	4c 89 45 20          	mov    QWORD PTR [rbp+0x20],r8
   1400027f4:	83 7d 18 03          	cmp    DWORD PTR [rbp+0x18],0x3
   1400027f8:	0f 84 cc 00 00 00    	je     1400028ca <__mingw_TLScallback+0xe9>
   1400027fe:	83 7d 18 03          	cmp    DWORD PTR [rbp+0x18],0x3
   140002802:	0f 87 ca 00 00 00    	ja     1400028d2 <__mingw_TLScallback+0xf1>
   140002808:	83 7d 18 02          	cmp    DWORD PTR [rbp+0x18],0x2
   14000280c:	0f 84 b1 00 00 00    	je     1400028c3 <__mingw_TLScallback+0xe2>
   140002812:	83 7d 18 02          	cmp    DWORD PTR [rbp+0x18],0x2
   140002816:	0f 87 b6 00 00 00    	ja     1400028d2 <__mingw_TLScallback+0xf1>
   14000281c:	83 7d 18 00          	cmp    DWORD PTR [rbp+0x18],0x0
   140002820:	74 33                	je     140002855 <__mingw_TLScallback+0x74>
   140002822:	83 7d 18 01          	cmp    DWORD PTR [rbp+0x18],0x1
   140002826:	0f 85 a6 00 00 00    	jne    1400028d2 <__mingw_TLScallback+0xf1>
   14000282c:	8b 05 16 d9 00 00    	mov    eax,DWORD PTR [rip+0xd916]        # 140010148 <__mingwthr_cs_init>
   140002832:	85 c0                	test   eax,eax
   140002834:	75 13                	jne    140002849 <__mingw_TLScallback+0x68>
   140002836:	48 8d 05 e3 d8 00 00 	lea    rax,[rip+0xd8e3]        # 140010120 <__mingwthr_cs>
   14000283d:	48 89 c1             	mov    rcx,rax
   140002840:	48 8b 05 c1 e9 00 00 	mov    rax,QWORD PTR [rip+0xe9c1]        # 140011208 <__imp_InitializeCriticalSection>
   140002847:	ff d0                	call   rax
   140002849:	c7 05 f5 d8 00 00 01 	mov    DWORD PTR [rip+0xd8f5],0x1        # 140010148 <__mingwthr_cs_init>
   140002850:	00 00 00 
   140002853:	eb 7d                	jmp    1400028d2 <__mingw_TLScallback+0xf1>
   140002855:	e8 e8 fe ff ff       	call   140002742 <__mingwthr_run_key_dtors>
   14000285a:	8b 05 e8 d8 00 00    	mov    eax,DWORD PTR [rip+0xd8e8]        # 140010148 <__mingwthr_cs_init>
   140002860:	83 f8 01             	cmp    eax,0x1
   140002863:	75 6c                	jne    1400028d1 <__mingw_TLScallback+0xf0>
   140002865:	48 8b 05 e4 d8 00 00 	mov    rax,QWORD PTR [rip+0xd8e4]        # 140010150 <key_dtor_list>
   14000286c:	48 89 45 f8          	mov    QWORD PTR [rbp-0x8],rax
   140002870:	eb 20                	jmp    140002892 <__mingw_TLScallback+0xb1>
   140002872:	48 8b 45 f8          	mov    rax,QWORD PTR [rbp-0x8]
   140002876:	48 8b 40 10          	mov    rax,QWORD PTR [rax+0x10]
   14000287a:	48 89 45 f0          	mov    QWORD PTR [rbp-0x10],rax
   14000287e:	48 8b 45 f8          	mov    rax,QWORD PTR [rbp-0x8]
   140002882:	48 89 c1             	mov    rcx,rax
   140002885:	e8 5e 6b 00 00       	call   1400093e8 <free>
   14000288a:	48 8b 45 f0          	mov    rax,QWORD PTR [rbp-0x10]
   14000288e:	48 89 45 f8          	mov    QWORD PTR [rbp-0x8],rax
   140002892:	48 83 7d f8 00       	cmp    QWORD PTR [rbp-0x8],0x0
   140002897:	75 d9                	jne    140002872 <__mingw_TLScallback+0x91>
   140002899:	48 c7 05 ac d8 00 00 	mov    QWORD PTR [rip+0xd8ac],0x0        # 140010150 <key_dtor_list>
   1400028a0:	00 00 00 00 
   1400028a4:	c7 05 9a d8 00 00 00 	mov    DWORD PTR [rip+0xd89a],0x0        # 140010148 <__mingwthr_cs_init>
   1400028ab:	00 00 00 
   1400028ae:	48 8d 05 6b d8 00 00 	lea    rax,[rip+0xd86b]        # 140010120 <__mingwthr_cs>
   1400028b5:	48 89 c1             	mov    rcx,rax
   1400028b8:	48 8b 05 19 e9 00 00 	mov    rax,QWORD PTR [rip+0xe919]        # 1400111d8 <__IAT_start__>
   1400028bf:	ff d0                	call   rax
   1400028c1:	eb 0e                	jmp    1400028d1 <__mingw_TLScallback+0xf0>
   1400028c3:	e8 18 00 00 00       	call   1400028e0 <_fpreset>
   1400028c8:	eb 08                	jmp    1400028d2 <__mingw_TLScallback+0xf1>
   1400028ca:	e8 73 fe ff ff       	call   140002742 <__mingwthr_run_key_dtors>
   1400028cf:	eb 01                	jmp    1400028d2 <__mingw_TLScallback+0xf1>
   1400028d1:	90                   	nop
   1400028d2:	b8 01 00 00 00       	mov    eax,0x1
   1400028d7:	48 83 c4 30          	add    rsp,0x30
   1400028db:	5d                   	pop    rbp
   1400028dc:	c3                   	ret
   1400028dd:	90                   	nop
   1400028de:	90                   	nop
   1400028df:	90                   	nop

00000001400028e0 <_fpreset>:
   1400028e0:	55                   	push   rbp
   1400028e1:	48 89 e5             	mov    rbp,rsp
   1400028e4:	db e3                	fninit
   1400028e6:	90                   	nop
   1400028e7:	5d                   	pop    rbp
   1400028e8:	c3                   	ret
   1400028e9:	90                   	nop
   1400028ea:	90                   	nop
   1400028eb:	90                   	nop
   1400028ec:	90                   	nop
   1400028ed:	90                   	nop
   1400028ee:	90                   	nop
   1400028ef:	90                   	nop

00000001400028f0 <_ValidateImageBase>:
   1400028f0:	55                   	push   rbp
   1400028f1:	48 89 e5             	mov    rbp,rsp
   1400028f4:	48 83 ec 20          	sub    rsp,0x20
   1400028f8:	48 89 4d 10          	mov    QWORD PTR [rbp+0x10],rcx
   1400028fc:	48 8b 45 10          	mov    rax,QWORD PTR [rbp+0x10]
   140002900:	48 89 45 f8          	mov    QWORD PTR [rbp-0x8],rax
   140002904:	48 8b 45 f8          	mov    rax,QWORD PTR [rbp-0x8]
   140002908:	0f b7 00             	movzx  eax,WORD PTR [rax]
   14000290b:	66 3d 4d 5a          	cmp    ax,0x5a4d
   14000290f:	74 07                	je     140002918 <_ValidateImageBase+0x28>
   140002911:	b8 00 00 00 00       	mov    eax,0x0
   140002916:	eb 4e                	jmp    140002966 <_ValidateImageBase+0x76>
   140002918:	48 8b 45 f8          	mov    rax,QWORD PTR [rbp-0x8]
   14000291c:	8b 40 3c             	mov    eax,DWORD PTR [rax+0x3c]
   14000291f:	48 63 d0             	movsxd rdx,eax
   140002922:	48 8b 45 f8          	mov    rax,QWORD PTR [rbp-0x8]
   140002926:	48 01 d0             	add    rax,rdx
   140002929:	48 89 45 f0          	mov    QWORD PTR [rbp-0x10],rax
   14000292d:	48 8b 45 f0          	mov    rax,QWORD PTR [rbp-0x10]
   140002931:	8b 00                	mov    eax,DWORD PTR [rax]
   140002933:	3d 50 45 00 00       	cmp    eax,0x4550
   140002938:	74 07                	je     140002941 <_ValidateImageBase+0x51>
   14000293a:	b8 00 00 00 00       	mov    eax,0x0
   14000293f:	eb 25                	jmp    140002966 <_ValidateImageBase+0x76>
   140002941:	48 8b 45 f0          	mov    rax,QWORD PTR [rbp-0x10]
   140002945:	48 83 c0 18          	add    rax,0x18
   140002949:	48 89 45 e8          	mov    QWORD PTR [rbp-0x18],rax
   14000294d:	48 8b 45 e8          	mov    rax,QWORD PTR [rbp-0x18]
   140002951:	0f b7 00             	movzx  eax,WORD PTR [rax]
   140002954:	66 3d 0b 02          	cmp    ax,0x20b
   140002958:	74 07                	je     140002961 <_ValidateImageBase+0x71>
   14000295a:	b8 00 00 00 00       	mov    eax,0x0
   14000295f:	eb 05                	jmp    140002966 <_ValidateImageBase+0x76>
   140002961:	b8 01 00 00 00       	mov    eax,0x1
   140002966:	48 83 c4 20          	add    rsp,0x20
   14000296a:	5d                   	pop    rbp
   14000296b:	c3                   	ret

000000014000296c <_FindPESection>:
   14000296c:	55                   	push   rbp
   14000296d:	48 89 e5             	mov    rbp,rsp
   140002970:	48 83 ec 20          	sub    rsp,0x20
   140002974:	48 89 4d 10          	mov    QWORD PTR [rbp+0x10],rcx
   140002978:	48 89 55 18          	mov    QWORD PTR [rbp+0x18],rdx
   14000297c:	48 8b 45 10          	mov    rax,QWORD PTR [rbp+0x10]
   140002980:	8b 40 3c             	mov    eax,DWORD PTR [rax+0x3c]
   140002983:	48 63 d0             	movsxd rdx,eax
   140002986:	48 8b 45 10          	mov    rax,QWORD PTR [rbp+0x10]
   14000298a:	48 01 d0             	add    rax,rdx
   14000298d:	48 89 45 e8          	mov    QWORD PTR [rbp-0x18],rax
   140002991:	c7 45 f4 00 00 00 00 	mov    DWORD PTR [rbp-0xc],0x0
   140002998:	48 8b 45 e8          	mov    rax,QWORD PTR [rbp-0x18]
   14000299c:	0f b7 40 14          	movzx  eax,WORD PTR [rax+0x14]
   1400029a0:	0f b7 d0             	movzx  edx,ax
   1400029a3:	48 8b 45 e8          	mov    rax,QWORD PTR [rbp-0x18]
   1400029a7:	48 01 d0             	add    rax,rdx
   1400029aa:	48 83 c0 18          	add    rax,0x18
   1400029ae:	48 89 45 f8          	mov    QWORD PTR [rbp-0x8],rax
   1400029b2:	eb 36                	jmp    1400029ea <_FindPESection+0x7e>
   1400029b4:	48 8b 45 f8          	mov    rax,QWORD PTR [rbp-0x8]
   1400029b8:	8b 40 0c             	mov    eax,DWORD PTR [rax+0xc]
   1400029bb:	89 c0                	mov    eax,eax
   1400029bd:	48 39 45 18          	cmp    QWORD PTR [rbp+0x18],rax
   1400029c1:	72 1e                	jb     1400029e1 <_FindPESection+0x75>
   1400029c3:	48 8b 45 f8          	mov    rax,QWORD PTR [rbp-0x8]
   1400029c7:	8b 50 0c             	mov    edx,DWORD PTR [rax+0xc]
   1400029ca:	48 8b 45 f8          	mov    rax,QWORD PTR [rbp-0x8]
   1400029ce:	8b 40 08             	mov    eax,DWORD PTR [rax+0x8]
   1400029d1:	01 d0                	add    eax,edx
   1400029d3:	89 c0                	mov    eax,eax
   1400029d5:	48 39 45 18          	cmp    QWORD PTR [rbp+0x18],rax
   1400029d9:	73 06                	jae    1400029e1 <_FindPESection+0x75>
   1400029db:	48 8b 45 f8          	mov    rax,QWORD PTR [rbp-0x8]
   1400029df:	eb 1e                	jmp    1400029ff <_FindPESection+0x93>
   1400029e1:	83 45 f4 01          	add    DWORD PTR [rbp-0xc],0x1
   1400029e5:	48 83 45 f8 28       	add    QWORD PTR [rbp-0x8],0x28
   1400029ea:	48 8b 45 e8          	mov    rax,QWORD PTR [rbp-0x18]
   1400029ee:	0f b7 40 06          	movzx  eax,WORD PTR [rax+0x6]
   1400029f2:	0f b7 c0             	movzx  eax,ax
   1400029f5:	39 45 f4             	cmp    DWORD PTR [rbp-0xc],eax
   1400029f8:	72 ba                	jb     1400029b4 <_FindPESection+0x48>
   1400029fa:	b8 00 00 00 00       	mov    eax,0x0
   1400029ff:	48 83 c4 20          	add    rsp,0x20
   140002a03:	5d                   	pop    rbp
   140002a04:	c3                   	ret

0000000140002a05 <_FindPESectionByName>:
   140002a05:	55                   	push   rbp
   140002a06:	48 89 e5             	mov    rbp,rsp
   140002a09:	48 83 ec 40          	sub    rsp,0x40
   140002a0d:	48 89 4d 10          	mov    QWORD PTR [rbp+0x10],rcx
   140002a11:	48 8b 45 10          	mov    rax,QWORD PTR [rbp+0x10]
   140002a15:	48 89 c1             	mov    rcx,rax
   140002a18:	e8 fb 69 00 00       	call   140009418 <strlen>
   140002a1d:	48 83 f8 08          	cmp    rax,0x8
   140002a21:	76 0a                	jbe    140002a2d <_FindPESectionByName+0x28>
   140002a23:	b8 00 00 00 00       	mov    eax,0x0
   140002a28:	e9 98 00 00 00       	jmp    140002ac5 <_FindPESectionByName+0xc0>
   140002a2d:	48 8b 05 3c 8b 00 00 	mov    rax,QWORD PTR [rip+0x8b3c]        # 14000b570 <.refptr.__ImageBase>
   140002a34:	48 89 45 e8          	mov    QWORD PTR [rbp-0x18],rax
   140002a38:	48 8b 45 e8          	mov    rax,QWORD PTR [rbp-0x18]
   140002a3c:	48 89 c1             	mov    rcx,rax
   140002a3f:	e8 ac fe ff ff       	call   1400028f0 <_ValidateImageBase>
   140002a44:	85 c0                	test   eax,eax
   140002a46:	75 07                	jne    140002a4f <_FindPESectionByName+0x4a>
   140002a48:	b8 00 00 00 00       	mov    eax,0x0
   140002a4d:	eb 76                	jmp    140002ac5 <_FindPESectionByName+0xc0>
   140002a4f:	48 8b 45 e8          	mov    rax,QWORD PTR [rbp-0x18]
   140002a53:	8b 40 3c             	mov    eax,DWORD PTR [rax+0x3c]
   140002a56:	48 63 d0             	movsxd rdx,eax
   140002a59:	48 8b 45 e8          	mov    rax,QWORD PTR [rbp-0x18]
   140002a5d:	48 01 d0             	add    rax,rdx
   140002a60:	48 89 45 e0          	mov    QWORD PTR [rbp-0x20],rax
   140002a64:	c7 45 f4 00 00 00 00 	mov    DWORD PTR [rbp-0xc],0x0
   140002a6b:	48 8b 45 e0          	mov    rax,QWORD PTR [rbp-0x20]
   140002a6f:	0f b7 40 14          	movzx  eax,WORD PTR [rax+0x14]
   140002a73:	0f b7 d0             	movzx  edx,ax
   140002a76:	48 8b 45 e0          	mov    rax,QWORD PTR [rbp-0x20]
   140002a7a:	48 01 d0             	add    rax,rdx
   140002a7d:	48 83 c0 18          	add    rax,0x18
   140002a81:	48 89 45 f8          	mov    QWORD PTR [rbp-0x8],rax
   140002a85:	eb 29                	jmp    140002ab0 <_FindPESectionByName+0xab>
   140002a87:	48 8b 45 f8          	mov    rax,QWORD PTR [rbp-0x8]
   140002a8b:	48 8b 55 10          	mov    rdx,QWORD PTR [rbp+0x10]
   140002a8f:	41 b8 08 00 00 00    	mov    r8d,0x8
   140002a95:	48 89 c1             	mov    rcx,rax
   140002a98:	e8 83 69 00 00       	call   140009420 <strncmp>
   140002a9d:	85 c0                	test   eax,eax
   140002a9f:	75 06                	jne    140002aa7 <_FindPESectionByName+0xa2>
   140002aa1:	48 8b 45 f8          	mov    rax,QWORD PTR [rbp-0x8]
   140002aa5:	eb 1e                	jmp    140002ac5 <_FindPESectionByName+0xc0>
   140002aa7:	83 45 f4 01          	add    DWORD PTR [rbp-0xc],0x1
   140002aab:	48 83 45 f8 28       	add    QWORD PTR [rbp-0x8],0x28
   140002ab0:	48 8b 45 e0          	mov    rax,QWORD PTR [rbp-0x20]
   140002ab4:	0f b7 40 06          	movzx  eax,WORD PTR [rax+0x6]
   140002ab8:	0f b7 c0             	movzx  eax,ax
   140002abb:	39 45 f4             	cmp    DWORD PTR [rbp-0xc],eax
   140002abe:	72 c7                	jb     140002a87 <_FindPESectionByName+0x82>
   140002ac0:	b8 00 00 00 00       	mov    eax,0x0
   140002ac5:	48 83 c4 40          	add    rsp,0x40
   140002ac9:	5d                   	pop    rbp
   140002aca:	c3                   	ret

0000000140002acb <__mingw_GetSectionForAddress>:
   140002acb:	55                   	push   rbp
   140002acc:	48 89 e5             	mov    rbp,rsp
   140002acf:	48 83 ec 30          	sub    rsp,0x30
   140002ad3:	48 89 4d 10          	mov    QWORD PTR [rbp+0x10],rcx
   140002ad7:	48 8b 05 92 8a 00 00 	mov    rax,QWORD PTR [rip+0x8a92]        # 14000b570 <.refptr.__ImageBase>
   140002ade:	48 89 45 f8          	mov    QWORD PTR [rbp-0x8],rax
   140002ae2:	48 8b 45 f8          	mov    rax,QWORD PTR [rbp-0x8]
   140002ae6:	48 89 c1             	mov    rcx,rax
   140002ae9:	e8 02 fe ff ff       	call   1400028f0 <_ValidateImageBase>
   140002aee:	85 c0                	test   eax,eax
   140002af0:	75 07                	jne    140002af9 <__mingw_GetSectionForAddress+0x2e>
   140002af2:	b8 00 00 00 00       	mov    eax,0x0
   140002af7:	eb 1c                	jmp    140002b15 <__mingw_GetSectionForAddress+0x4a>
   140002af9:	48 8b 45 10          	mov    rax,QWORD PTR [rbp+0x10]
   140002afd:	48 2b 45 f8          	sub    rax,QWORD PTR [rbp-0x8]
   140002b01:	48 89 45 f0          	mov    QWORD PTR [rbp-0x10],rax
   140002b05:	48 8b 55 f0          	mov    rdx,QWORD PTR [rbp-0x10]
   140002b09:	48 8b 45 f8          	mov    rax,QWORD PTR [rbp-0x8]
   140002b0d:	48 89 c1             	mov    rcx,rax
   140002b10:	e8 57 fe ff ff       	call   14000296c <_FindPESection>
   140002b15:	48 83 c4 30          	add    rsp,0x30
   140002b19:	5d                   	pop    rbp
   140002b1a:	c3                   	ret

0000000140002b1b <__mingw_GetSectionCount>:
   140002b1b:	55                   	push   rbp
   140002b1c:	48 89 e5             	mov    rbp,rsp
   140002b1f:	48 83 ec 30          	sub    rsp,0x30
   140002b23:	48 8b 05 46 8a 00 00 	mov    rax,QWORD PTR [rip+0x8a46]        # 14000b570 <.refptr.__ImageBase>
   140002b2a:	48 89 45 f8          	mov    QWORD PTR [rbp-0x8],rax
   140002b2e:	48 8b 45 f8          	mov    rax,QWORD PTR [rbp-0x8]
   140002b32:	48 89 c1             	mov    rcx,rax
   140002b35:	e8 b6 fd ff ff       	call   1400028f0 <_ValidateImageBase>
   140002b3a:	85 c0                	test   eax,eax
   140002b3c:	75 07                	jne    140002b45 <__mingw_GetSectionCount+0x2a>
   140002b3e:	b8 00 00 00 00       	mov    eax,0x0
   140002b43:	eb 20                	jmp    140002b65 <__mingw_GetSectionCount+0x4a>
   140002b45:	48 8b 45 f8          	mov    rax,QWORD PTR [rbp-0x8]
   140002b49:	8b 40 3c             	mov    eax,DWORD PTR [rax+0x3c]
   140002b4c:	48 63 d0             	movsxd rdx,eax
   140002b4f:	48 8b 45 f8          	mov    rax,QWORD PTR [rbp-0x8]
   140002b53:	48 01 d0             	add    rax,rdx
   140002b56:	48 89 45 f0          	mov    QWORD PTR [rbp-0x10],rax
   140002b5a:	48 8b 45 f0          	mov    rax,QWORD PTR [rbp-0x10]
   140002b5e:	0f b7 40 06          	movzx  eax,WORD PTR [rax+0x6]
   140002b62:	0f b7 c0             	movzx  eax,ax
   140002b65:	48 83 c4 30          	add    rsp,0x30
   140002b69:	5d                   	pop    rbp
   140002b6a:	c3                   	ret

0000000140002b6b <_FindPESectionExec>:
   140002b6b:	55                   	push   rbp
   140002b6c:	48 89 e5             	mov    rbp,rsp
   140002b6f:	48 83 ec 40          	sub    rsp,0x40
   140002b73:	48 89 4d 10          	mov    QWORD PTR [rbp+0x10],rcx
   140002b77:	48 8b 05 f2 89 00 00 	mov    rax,QWORD PTR [rip+0x89f2]        # 14000b570 <.refptr.__ImageBase>
   140002b7e:	48 89 45 e8          	mov    QWORD PTR [rbp-0x18],rax
   140002b82:	48 8b 45 e8          	mov    rax,QWORD PTR [rbp-0x18]
   140002b86:	48 89 c1             	mov    rcx,rax
   140002b89:	e8 62 fd ff ff       	call   1400028f0 <_ValidateImageBase>
   140002b8e:	85 c0                	test   eax,eax
   140002b90:	75 07                	jne    140002b99 <_FindPESectionExec+0x2e>
   140002b92:	b8 00 00 00 00       	mov    eax,0x0
   140002b97:	eb 78                	jmp    140002c11 <_FindPESectionExec+0xa6>
   140002b99:	48 8b 45 e8          	mov    rax,QWORD PTR [rbp-0x18]
   140002b9d:	8b 40 3c             	mov    eax,DWORD PTR [rax+0x3c]
   140002ba0:	48 63 d0             	movsxd rdx,eax
   140002ba3:	48 8b 45 e8          	mov    rax,QWORD PTR [rbp-0x18]
   140002ba7:	48 01 d0             	add    rax,rdx
   140002baa:	48 89 45 e0          	mov    QWORD PTR [rbp-0x20],rax
   140002bae:	c7 45 f4 00 00 00 00 	mov    DWORD PTR [rbp-0xc],0x0
   140002bb5:	48 8b 45 e0          	mov    rax,QWORD PTR [rbp-0x20]
   140002bb9:	0f b7 40 14          	movzx  eax,WORD PTR [rax+0x14]
   140002bbd:	0f b7 d0             	movzx  edx,ax
   140002bc0:	48 8b 45 e0          	mov    rax,QWORD PTR [rbp-0x20]
   140002bc4:	48 01 d0             	add    rax,rdx
   140002bc7:	48 83 c0 18          	add    rax,0x18
   140002bcb:	48 89 45 f8          	mov    QWORD PTR [rbp-0x8],rax
   140002bcf:	eb 2b                	jmp    140002bfc <_FindPESectionExec+0x91>
   140002bd1:	48 8b 45 f8          	mov    rax,QWORD PTR [rbp-0x8]
   140002bd5:	8b 40 24             	mov    eax,DWORD PTR [rax+0x24]
   140002bd8:	25 00 00 00 20       	and    eax,0x20000000
   140002bdd:	85 c0                	test   eax,eax
   140002bdf:	74 12                	je     140002bf3 <_FindPESectionExec+0x88>
   140002be1:	48 83 7d 10 00       	cmp    QWORD PTR [rbp+0x10],0x0
   140002be6:	75 06                	jne    140002bee <_FindPESectionExec+0x83>
   140002be8:	48 8b 45 f8          	mov    rax,QWORD PTR [rbp-0x8]
   140002bec:	eb 23                	jmp    140002c11 <_FindPESectionExec+0xa6>
   140002bee:	48 83 6d 10 01       	sub    QWORD PTR [rbp+0x10],0x1
   140002bf3:	83 45 f4 01          	add    DWORD PTR [rbp-0xc],0x1
   140002bf7:	48 83 45 f8 28       	add    QWORD PTR [rbp-0x8],0x28
   140002bfc:	48 8b 45 e0          	mov    rax,QWORD PTR [rbp-0x20]
   140002c00:	0f b7 40 06          	movzx  eax,WORD PTR [rax+0x6]
   140002c04:	0f b7 c0             	movzx  eax,ax
   140002c07:	39 45 f4             	cmp    DWORD PTR [rbp-0xc],eax
   140002c0a:	72 c5                	jb     140002bd1 <_FindPESectionExec+0x66>
   140002c0c:	b8 00 00 00 00       	mov    eax,0x0
   140002c11:	48 83 c4 40          	add    rsp,0x40
   140002c15:	5d                   	pop    rbp
   140002c16:	c3                   	ret

0000000140002c17 <_GetPEImageBase>:
   140002c17:	55                   	push   rbp
   140002c18:	48 89 e5             	mov    rbp,rsp
   140002c1b:	48 83 ec 30          	sub    rsp,0x30
   140002c1f:	48 8b 05 4a 89 00 00 	mov    rax,QWORD PTR [rip+0x894a]        # 14000b570 <.refptr.__ImageBase>
   140002c26:	48 89 45 f8          	mov    QWORD PTR [rbp-0x8],rax
   140002c2a:	48 8b 45 f8          	mov    rax,QWORD PTR [rbp-0x8]
   140002c2e:	48 89 c1             	mov    rcx,rax
   140002c31:	e8 ba fc ff ff       	call   1400028f0 <_ValidateImageBase>
   140002c36:	85 c0                	test   eax,eax
   140002c38:	75 07                	jne    140002c41 <_GetPEImageBase+0x2a>
   140002c3a:	b8 00 00 00 00       	mov    eax,0x0
   140002c3f:	eb 04                	jmp    140002c45 <_GetPEImageBase+0x2e>
   140002c41:	48 8b 45 f8          	mov    rax,QWORD PTR [rbp-0x8]
   140002c45:	48 83 c4 30          	add    rsp,0x30
   140002c49:	5d                   	pop    rbp
   140002c4a:	c3                   	ret

0000000140002c4b <_IsNonwritableInCurrentImage>:
   140002c4b:	55                   	push   rbp
   140002c4c:	48 89 e5             	mov    rbp,rsp
   140002c4f:	48 83 ec 40          	sub    rsp,0x40
   140002c53:	48 89 4d 10          	mov    QWORD PTR [rbp+0x10],rcx
   140002c57:	48 8b 05 12 89 00 00 	mov    rax,QWORD PTR [rip+0x8912]        # 14000b570 <.refptr.__ImageBase>
   140002c5e:	48 89 45 f8          	mov    QWORD PTR [rbp-0x8],rax
   140002c62:	48 8b 45 f8          	mov    rax,QWORD PTR [rbp-0x8]
   140002c66:	48 89 c1             	mov    rcx,rax
   140002c69:	e8 82 fc ff ff       	call   1400028f0 <_ValidateImageBase>
   140002c6e:	85 c0                	test   eax,eax
   140002c70:	75 07                	jne    140002c79 <_IsNonwritableInCurrentImage+0x2e>
   140002c72:	b8 00 00 00 00       	mov    eax,0x0
   140002c77:	eb 3d                	jmp    140002cb6 <_IsNonwritableInCurrentImage+0x6b>
   140002c79:	48 8b 45 10          	mov    rax,QWORD PTR [rbp+0x10]
   140002c7d:	48 2b 45 f8          	sub    rax,QWORD PTR [rbp-0x8]
   140002c81:	48 89 45 f0          	mov    QWORD PTR [rbp-0x10],rax
   140002c85:	48 8b 55 f0          	mov    rdx,QWORD PTR [rbp-0x10]
   140002c89:	48 8b 45 f8          	mov    rax,QWORD PTR [rbp-0x8]
   140002c8d:	48 89 c1             	mov    rcx,rax
   140002c90:	e8 d7 fc ff ff       	call   14000296c <_FindPESection>
   140002c95:	48 89 45 e8          	mov    QWORD PTR [rbp-0x18],rax
   140002c99:	48 83 7d e8 00       	cmp    QWORD PTR [rbp-0x18],0x0
   140002c9e:	75 07                	jne    140002ca7 <_IsNonwritableInCurrentImage+0x5c>
   140002ca0:	b8 00 00 00 00       	mov    eax,0x0
   140002ca5:	eb 0f                	jmp    140002cb6 <_IsNonwritableInCurrentImage+0x6b>
   140002ca7:	48 8b 45 e8          	mov    rax,QWORD PTR [rbp-0x18]
   140002cab:	8b 40 24             	mov    eax,DWORD PTR [rax+0x24]
   140002cae:	f7 d0                	not    eax
   140002cb0:	c1 e8 1f             	shr    eax,0x1f
   140002cb3:	0f b6 c0             	movzx  eax,al
   140002cb6:	48 83 c4 40          	add    rsp,0x40
   140002cba:	5d                   	pop    rbp
   140002cbb:	c3                   	ret

0000000140002cbc <__mingw_enum_import_library_names>:
   140002cbc:	55                   	push   rbp
   140002cbd:	48 89 e5             	mov    rbp,rsp
   140002cc0:	48 83 ec 50          	sub    rsp,0x50
   140002cc4:	89 4d 10             	mov    DWORD PTR [rbp+0x10],ecx
   140002cc7:	48 8b 05 a2 88 00 00 	mov    rax,QWORD PTR [rip+0x88a2]        # 14000b570 <.refptr.__ImageBase>
   140002cce:	48 89 45 f0          	mov    QWORD PTR [rbp-0x10],rax
   140002cd2:	48 8b 45 f0          	mov    rax,QWORD PTR [rbp-0x10]
   140002cd6:	48 89 c1             	mov    rcx,rax
   140002cd9:	e8 12 fc ff ff       	call   1400028f0 <_ValidateImageBase>
   140002cde:	85 c0                	test   eax,eax
   140002ce0:	75 0a                	jne    140002cec <__mingw_enum_import_library_names+0x30>
   140002ce2:	b8 00 00 00 00       	mov    eax,0x0
   140002ce7:	e9 ab 00 00 00       	jmp    140002d97 <__mingw_enum_import_library_names+0xdb>
   140002cec:	48 8b 45 f0          	mov    rax,QWORD PTR [rbp-0x10]
   140002cf0:	8b 40 3c             	mov    eax,DWORD PTR [rax+0x3c]
   140002cf3:	48 63 d0             	movsxd rdx,eax
   140002cf6:	48 8b 45 f0          	mov    rax,QWORD PTR [rbp-0x10]
   140002cfa:	48 01 d0             	add    rax,rdx
   140002cfd:	48 89 45 e8          	mov    QWORD PTR [rbp-0x18],rax
   140002d01:	48 8b 45 e8          	mov    rax,QWORD PTR [rbp-0x18]
   140002d05:	8b 80 90 00 00 00    	mov    eax,DWORD PTR [rax+0x90]
   140002d0b:	89 45 e4             	mov    DWORD PTR [rbp-0x1c],eax
   140002d0e:	83 7d e4 00          	cmp    DWORD PTR [rbp-0x1c],0x0
   140002d12:	75 07                	jne    140002d1b <__mingw_enum_import_library_names+0x5f>
   140002d14:	b8 00 00 00 00       	mov    eax,0x0
   140002d19:	eb 7c                	jmp    140002d97 <__mingw_enum_import_library_names+0xdb>
   140002d1b:	8b 55 e4             	mov    edx,DWORD PTR [rbp-0x1c]
   140002d1e:	48 8b 45 f0          	mov    rax,QWORD PTR [rbp-0x10]
   140002d22:	48 89 c1             	mov    rcx,rax
   140002d25:	e8 42 fc ff ff       	call   14000296c <_FindPESection>
   140002d2a:	48 89 45 d8          	mov    QWORD PTR [rbp-0x28],rax
   140002d2e:	48 83 7d d8 00       	cmp    QWORD PTR [rbp-0x28],0x0
   140002d33:	75 07                	jne    140002d3c <__mingw_enum_import_library_names+0x80>
   140002d35:	b8 00 00 00 00       	mov    eax,0x0
   140002d3a:	eb 5b                	jmp    140002d97 <__mingw_enum_import_library_names+0xdb>
   140002d3c:	8b 55 e4             	mov    edx,DWORD PTR [rbp-0x1c]
   140002d3f:	48 8b 45 f0          	mov    rax,QWORD PTR [rbp-0x10]
   140002d43:	48 01 d0             	add    rax,rdx
   140002d46:	48 89 45 f8          	mov    QWORD PTR [rbp-0x8],rax
   140002d4a:	48 83 7d f8 00       	cmp    QWORD PTR [rbp-0x8],0x0
   140002d4f:	75 07                	jne    140002d58 <__mingw_enum_import_library_names+0x9c>
   140002d51:	b8 00 00 00 00       	mov    eax,0x0
   140002d56:	eb 3f                	jmp    140002d97 <__mingw_enum_import_library_names+0xdb>
   140002d58:	48 8b 45 f8          	mov    rax,QWORD PTR [rbp-0x8]
   140002d5c:	8b 40 04             	mov    eax,DWORD PTR [rax+0x4]
   140002d5f:	85 c0                	test   eax,eax
   140002d61:	75 0b                	jne    140002d6e <__mingw_enum_import_library_names+0xb2>
   140002d63:	48 8b 45 f8          	mov    rax,QWORD PTR [rbp-0x8]
   140002d67:	8b 40 0c             	mov    eax,DWORD PTR [rax+0xc]
   140002d6a:	85 c0                	test   eax,eax
   140002d6c:	74 23                	je     140002d91 <__mingw_enum_import_library_names+0xd5>
   140002d6e:	83 7d 10 00          	cmp    DWORD PTR [rbp+0x10],0x0
   140002d72:	7f 12                	jg     140002d86 <__mingw_enum_import_library_names+0xca>
   140002d74:	48 8b 45 f8          	mov    rax,QWORD PTR [rbp-0x8]
   140002d78:	8b 40 0c             	mov    eax,DWORD PTR [rax+0xc]
   140002d7b:	89 c2                	mov    edx,eax
   140002d7d:	48 8b 45 f0          	mov    rax,QWORD PTR [rbp-0x10]
   140002d81:	48 01 d0             	add    rax,rdx
   140002d84:	eb 11                	jmp    140002d97 <__mingw_enum_import_library_names+0xdb>
   140002d86:	83 6d 10 01          	sub    DWORD PTR [rbp+0x10],0x1
   140002d8a:	48 83 45 f8 14       	add    QWORD PTR [rbp-0x8],0x14
   140002d8f:	eb c7                	jmp    140002d58 <__mingw_enum_import_library_names+0x9c>
   140002d91:	90                   	nop
   140002d92:	b8 00 00 00 00       	mov    eax,0x0
   140002d97:	48 83 c4 50          	add    rsp,0x50
   140002d9b:	5d                   	pop    rbp
   140002d9c:	c3                   	ret
   140002d9d:	90                   	nop
   140002d9e:	90                   	nop
   140002d9f:	90                   	nop

0000000140002da0 <___chkstk_ms>:
   140002da0:	51                   	push   rcx
   140002da1:	50                   	push   rax
   140002da2:	48 3d 00 10 00 00    	cmp    rax,0x1000
   140002da8:	48 8d 4c 24 18       	lea    rcx,[rsp+0x18]
   140002dad:	72 19                	jb     140002dc8 <___chkstk_ms+0x28>
   140002daf:	48 81 e9 00 10 00 00 	sub    rcx,0x1000
   140002db6:	48 83 09 00          	or     QWORD PTR [rcx],0x0
   140002dba:	48 2d 00 10 00 00    	sub    rax,0x1000
   140002dc0:	48 3d 00 10 00 00    	cmp    rax,0x1000
   140002dc6:	77 e7                	ja     140002daf <___chkstk_ms+0xf>
   140002dc8:	48 29 c1             	sub    rcx,rax
   140002dcb:	48 83 09 00          	or     QWORD PTR [rcx],0x0
   140002dcf:	58                   	pop    rax
   140002dd0:	59                   	pop    rcx
   140002dd1:	c3                   	ret
   140002dd2:	90                   	nop
   140002dd3:	90                   	nop
   140002dd4:	90                   	nop
   140002dd5:	90                   	nop
   140002dd6:	90                   	nop
   140002dd7:	90                   	nop
   140002dd8:	90                   	nop
   140002dd9:	90                   	nop
   140002dda:	90                   	nop
   140002ddb:	90                   	nop
   140002ddc:	90                   	nop
   140002ddd:	90                   	nop
   140002dde:	90                   	nop
   140002ddf:	90                   	nop

0000000140002de0 <__mingw_printf>:
   140002de0:	55                   	push   rbp
   140002de1:	53                   	push   rbx
   140002de2:	48 83 ec 48          	sub    rsp,0x48
   140002de6:	48 8d 6c 24 40       	lea    rbp,[rsp+0x40]
   140002deb:	48 89 4d 20          	mov    QWORD PTR [rbp+0x20],rcx
   140002def:	48 89 55 28          	mov    QWORD PTR [rbp+0x28],rdx
   140002df3:	4c 89 45 30          	mov    QWORD PTR [rbp+0x30],r8
   140002df7:	4c 89 4d 38          	mov    QWORD PTR [rbp+0x38],r9
   140002dfb:	48 8d 45 28          	lea    rax,[rbp+0x28]
   140002dff:	48 89 45 f8          	mov    QWORD PTR [rbp-0x8],rax
   140002e03:	b9 01 00 00 00       	mov    ecx,0x1
   140002e08:	e8 13 65 00 00       	call   140009320 <__acrt_iob_func>
   140002e0d:	48 89 c1             	mov    rcx,rax
   140002e10:	e8 8b 63 00 00       	call   1400091a0 <_lock_file>
   140002e15:	48 8b 5d f8          	mov    rbx,QWORD PTR [rbp-0x8]
   140002e19:	b9 01 00 00 00       	mov    ecx,0x1
   140002e1e:	e8 fd 64 00 00       	call   140009320 <__acrt_iob_func>
   140002e23:	48 8b 55 20          	mov    rdx,QWORD PTR [rbp+0x20]
   140002e27:	48 89 5c 24 20       	mov    QWORD PTR [rsp+0x20],rbx
   140002e2c:	49 89 d1             	mov    r9,rdx
   140002e2f:	41 b8 00 00 00 00    	mov    r8d,0x0
   140002e35:	48 89 c2             	mov    rdx,rax
   140002e38:	b9 00 60 00 00       	mov    ecx,0x6000
   140002e3d:	e8 99 1f 00 00       	call   140004ddb <__mingw_pformat>
   140002e42:	89 c3                	mov    ebx,eax
   140002e44:	b9 01 00 00 00       	mov    ecx,0x1
   140002e49:	e8 d2 64 00 00       	call   140009320 <__acrt_iob_func>
   140002e4e:	48 89 c1             	mov    rcx,rax
   140002e51:	e8 d4 63 00 00       	call   14000922a <_unlock_file>
   140002e56:	89 d8                	mov    eax,ebx
   140002e58:	48 83 c4 48          	add    rsp,0x48
   140002e5c:	5b                   	pop    rbx
   140002e5d:	5d                   	pop    rbp
   140002e5e:	c3                   	ret
   140002e5f:	90                   	nop

0000000140002e60 <__pformat_putc>:
   140002e60:	55                   	push   rbp
   140002e61:	48 89 e5             	mov    rbp,rsp
   140002e64:	48 83 ec 20          	sub    rsp,0x20
   140002e68:	89 4d 10             	mov    DWORD PTR [rbp+0x10],ecx
   140002e6b:	48 89 55 18          	mov    QWORD PTR [rbp+0x18],rdx
   140002e6f:	48 8b 45 18          	mov    rax,QWORD PTR [rbp+0x18]
   140002e73:	8b 40 08             	mov    eax,DWORD PTR [rax+0x8]
   140002e76:	25 00 40 00 00       	and    eax,0x4000
   140002e7b:	85 c0                	test   eax,eax
   140002e7d:	75 12                	jne    140002e91 <__pformat_putc+0x31>
   140002e7f:	48 8b 45 18          	mov    rax,QWORD PTR [rbp+0x18]
   140002e83:	8b 50 28             	mov    edx,DWORD PTR [rax+0x28]
   140002e86:	48 8b 45 18          	mov    rax,QWORD PTR [rbp+0x18]
   140002e8a:	8b 40 24             	mov    eax,DWORD PTR [rax+0x24]
   140002e8d:	39 c2                	cmp    edx,eax
   140002e8f:	7e 3b                	jle    140002ecc <__pformat_putc+0x6c>
   140002e91:	48 8b 45 18          	mov    rax,QWORD PTR [rbp+0x18]
   140002e95:	8b 40 08             	mov    eax,DWORD PTR [rax+0x8]
   140002e98:	25 00 20 00 00       	and    eax,0x2000
   140002e9d:	85 c0                	test   eax,eax
   140002e9f:	74 13                	je     140002eb4 <__pformat_putc+0x54>
   140002ea1:	48 8b 45 18          	mov    rax,QWORD PTR [rbp+0x18]
   140002ea5:	48 8b 10             	mov    rdx,QWORD PTR [rax]
   140002ea8:	8b 45 10             	mov    eax,DWORD PTR [rbp+0x10]
   140002eab:	89 c1                	mov    ecx,eax
   140002ead:	e8 2e 65 00 00       	call   1400093e0 <fputc>
   140002eb2:	eb 18                	jmp    140002ecc <__pformat_putc+0x6c>
   140002eb4:	48 8b 45 18          	mov    rax,QWORD PTR [rbp+0x18]
   140002eb8:	48 8b 10             	mov    rdx,QWORD PTR [rax]
   140002ebb:	48 8b 45 18          	mov    rax,QWORD PTR [rbp+0x18]
   140002ebf:	8b 40 24             	mov    eax,DWORD PTR [rax+0x24]
   140002ec2:	48 98                	cdqe
   140002ec4:	48 01 d0             	add    rax,rdx
   140002ec7:	8b 55 10             	mov    edx,DWORD PTR [rbp+0x10]
   140002eca:	88 10                	mov    BYTE PTR [rax],dl
   140002ecc:	48 8b 45 18          	mov    rax,QWORD PTR [rbp+0x18]
   140002ed0:	8b 40 24             	mov    eax,DWORD PTR [rax+0x24]
   140002ed3:	8d 50 01             	lea    edx,[rax+0x1]
   140002ed6:	48 8b 45 18          	mov    rax,QWORD PTR [rbp+0x18]
   140002eda:	89 50 24             	mov    DWORD PTR [rax+0x24],edx
   140002edd:	90                   	nop
   140002ede:	48 83 c4 20          	add    rsp,0x20
   140002ee2:	5d                   	pop    rbp
   140002ee3:	c3                   	ret

0000000140002ee4 <__pformat_putchars>:
   140002ee4:	55                   	push   rbp
   140002ee5:	48 89 e5             	mov    rbp,rsp
   140002ee8:	48 83 ec 20          	sub    rsp,0x20
   140002eec:	48 89 4d 10          	mov    QWORD PTR [rbp+0x10],rcx
   140002ef0:	89 55 18             	mov    DWORD PTR [rbp+0x18],edx
   140002ef3:	4c 89 45 20          	mov    QWORD PTR [rbp+0x20],r8
   140002ef7:	48 8b 45 20          	mov    rax,QWORD PTR [rbp+0x20]
   140002efb:	8b 40 10             	mov    eax,DWORD PTR [rax+0x10]
   140002efe:	85 c0                	test   eax,eax
   140002f00:	78 16                	js     140002f18 <__pformat_putchars+0x34>
   140002f02:	48 8b 45 20          	mov    rax,QWORD PTR [rbp+0x20]
   140002f06:	8b 40 10             	mov    eax,DWORD PTR [rax+0x10]
   140002f09:	39 45 18             	cmp    DWORD PTR [rbp+0x18],eax
   140002f0c:	7e 0a                	jle    140002f18 <__pformat_putchars+0x34>
   140002f0e:	48 8b 45 20          	mov    rax,QWORD PTR [rbp+0x20]
   140002f12:	8b 40 10             	mov    eax,DWORD PTR [rax+0x10]
   140002f15:	89 45 18             	mov    DWORD PTR [rbp+0x18],eax
   140002f18:	48 8b 45 20          	mov    rax,QWORD PTR [rbp+0x20]
   140002f1c:	8b 40 0c             	mov    eax,DWORD PTR [rax+0xc]
   140002f1f:	39 45 18             	cmp    DWORD PTR [rbp+0x18],eax
   140002f22:	7d 15                	jge    140002f39 <__pformat_putchars+0x55>
   140002f24:	48 8b 45 20          	mov    rax,QWORD PTR [rbp+0x20]
   140002f28:	8b 40 0c             	mov    eax,DWORD PTR [rax+0xc]
   140002f2b:	2b 45 18             	sub    eax,DWORD PTR [rbp+0x18]
   140002f2e:	89 c2                	mov    edx,eax
   140002f30:	48 8b 45 20          	mov    rax,QWORD PTR [rbp+0x20]
   140002f34:	89 50 0c             	mov    DWORD PTR [rax+0xc],edx
   140002f37:	eb 0b                	jmp    140002f44 <__pformat_putchars+0x60>
   140002f39:	48 8b 45 20          	mov    rax,QWORD PTR [rbp+0x20]
   140002f3d:	c7 40 0c ff ff ff ff 	mov    DWORD PTR [rax+0xc],0xffffffff
   140002f44:	48 8b 45 20          	mov    rax,QWORD PTR [rbp+0x20]
   140002f48:	8b 40 0c             	mov    eax,DWORD PTR [rax+0xc]
   140002f4b:	85 c0                	test   eax,eax
   140002f4d:	7e 57                	jle    140002fa6 <__pformat_putchars+0xc2>
   140002f4f:	48 8b 45 20          	mov    rax,QWORD PTR [rbp+0x20]
   140002f53:	8b 40 08             	mov    eax,DWORD PTR [rax+0x8]
   140002f56:	25 00 04 00 00       	and    eax,0x400
   140002f5b:	85 c0                	test   eax,eax
   140002f5d:	75 47                	jne    140002fa6 <__pformat_putchars+0xc2>
   140002f5f:	eb 11                	jmp    140002f72 <__pformat_putchars+0x8e>
   140002f61:	48 8b 45 20          	mov    rax,QWORD PTR [rbp+0x20]
   140002f65:	48 89 c2             	mov    rdx,rax
   140002f68:	b9 20 00 00 00       	mov    ecx,0x20
   140002f6d:	e8 ee fe ff ff       	call   140002e60 <__pformat_putc>
   140002f72:	48 8b 45 20          	mov    rax,QWORD PTR [rbp+0x20]
   140002f76:	8b 40 0c             	mov    eax,DWORD PTR [rax+0xc]
   140002f79:	8d 48 ff             	lea    ecx,[rax-0x1]
   140002f7c:	48 8b 55 20          	mov    rdx,QWORD PTR [rbp+0x20]
   140002f80:	89 4a 0c             	mov    DWORD PTR [rdx+0xc],ecx
   140002f83:	85 c0                	test   eax,eax
   140002f85:	75 da                	jne    140002f61 <__pformat_putchars+0x7d>
   140002f87:	eb 1d                	jmp    140002fa6 <__pformat_putchars+0xc2>
   140002f89:	48 8b 45 10          	mov    rax,QWORD PTR [rbp+0x10]
   140002f8d:	48 8d 50 01          	lea    rdx,[rax+0x1]
   140002f91:	48 89 55 10          	mov    QWORD PTR [rbp+0x10],rdx
   140002f95:	0f b6 00             	movzx  eax,BYTE PTR [rax]
   140002f98:	0f be c0             	movsx  eax,al
   140002f9b:	48 8b 55 20          	mov    rdx,QWORD PTR [rbp+0x20]
   140002f9f:	89 c1                	mov    ecx,eax
   140002fa1:	e8 ba fe ff ff       	call   140002e60 <__pformat_putc>
   140002fa6:	8b 45 18             	mov    eax,DWORD PTR [rbp+0x18]
   140002fa9:	8d 50 ff             	lea    edx,[rax-0x1]
   140002fac:	89 55 18             	mov    DWORD PTR [rbp+0x18],edx
   140002faf:	85 c0                	test   eax,eax
   140002fb1:	75 d6                	jne    140002f89 <__pformat_putchars+0xa5>
   140002fb3:	eb 11                	jmp    140002fc6 <__pformat_putchars+0xe2>
   140002fb5:	48 8b 45 20          	mov    rax,QWORD PTR [rbp+0x20]
   140002fb9:	48 89 c2             	mov    rdx,rax
   140002fbc:	b9 20 00 00 00       	mov    ecx,0x20
   140002fc1:	e8 9a fe ff ff       	call   140002e60 <__pformat_putc>
   140002fc6:	48 8b 45 20          	mov    rax,QWORD PTR [rbp+0x20]
   140002fca:	8b 40 0c             	mov    eax,DWORD PTR [rax+0xc]
   140002fcd:	8d 48 ff             	lea    ecx,[rax-0x1]
   140002fd0:	48 8b 55 20          	mov    rdx,QWORD PTR [rbp+0x20]
   140002fd4:	89 4a 0c             	mov    DWORD PTR [rdx+0xc],ecx
   140002fd7:	85 c0                	test   eax,eax
   140002fd9:	7f da                	jg     140002fb5 <__pformat_putchars+0xd1>
   140002fdb:	90                   	nop
   140002fdc:	90                   	nop
   140002fdd:	48 83 c4 20          	add    rsp,0x20
   140002fe1:	5d                   	pop    rbp
   140002fe2:	c3                   	ret

0000000140002fe3 <__pformat_puts>:
   140002fe3:	55                   	push   rbp
   140002fe4:	48 89 e5             	mov    rbp,rsp
   140002fe7:	48 83 ec 20          	sub    rsp,0x20
   140002feb:	48 89 4d 10          	mov    QWORD PTR [rbp+0x10],rcx
   140002fef:	48 89 55 18          	mov    QWORD PTR [rbp+0x18],rdx
   140002ff3:	48 83 7d 10 00       	cmp    QWORD PTR [rbp+0x10],0x0
   140002ff8:	75 0b                	jne    140003005 <__pformat_puts+0x22>
   140002ffa:	48 8d 05 4f 83 00 00 	lea    rax,[rip+0x834f]        # 14000b350 <.rdata>
   140003001:	48 89 45 10          	mov    QWORD PTR [rbp+0x10],rax
   140003005:	48 8b 45 18          	mov    rax,QWORD PTR [rbp+0x18]
   140003009:	8b 40 10             	mov    eax,DWORD PTR [rax+0x10]
   14000300c:	85 c0                	test   eax,eax
   14000300e:	78 2f                	js     14000303f <__pformat_puts+0x5c>
   140003010:	48 8b 45 18          	mov    rax,QWORD PTR [rbp+0x18]
   140003014:	8b 40 10             	mov    eax,DWORD PTR [rax+0x10]
   140003017:	48 63 d0             	movsxd rdx,eax
   14000301a:	48 8b 45 10          	mov    rax,QWORD PTR [rbp+0x10]
   14000301e:	48 89 c1             	mov    rcx,rax
   140003021:	e8 7a 5c 00 00       	call   140008ca0 <strnlen>
   140003026:	89 c1                	mov    ecx,eax
   140003028:	48 8b 55 18          	mov    rdx,QWORD PTR [rbp+0x18]
   14000302c:	48 8b 45 10          	mov    rax,QWORD PTR [rbp+0x10]
   140003030:	49 89 d0             	mov    r8,rdx
   140003033:	89 ca                	mov    edx,ecx
   140003035:	48 89 c1             	mov    rcx,rax
   140003038:	e8 a7 fe ff ff       	call   140002ee4 <__pformat_putchars>
   14000303d:	eb 23                	jmp    140003062 <__pformat_puts+0x7f>
   14000303f:	48 8b 45 10          	mov    rax,QWORD PTR [rbp+0x10]
   140003043:	48 89 c1             	mov    rcx,rax
   140003046:	e8 cd 63 00 00       	call   140009418 <strlen>
   14000304b:	89 c1                	mov    ecx,eax
   14000304d:	48 8b 55 18          	mov    rdx,QWORD PTR [rbp+0x18]
   140003051:	48 8b 45 10          	mov    rax,QWORD PTR [rbp+0x10]
   140003055:	49 89 d0             	mov    r8,rdx
   140003058:	89 ca                	mov    edx,ecx
   14000305a:	48 89 c1             	mov    rcx,rax
   14000305d:	e8 82 fe ff ff       	call   140002ee4 <__pformat_putchars>
   140003062:	90                   	nop
   140003063:	48 83 c4 20          	add    rsp,0x20
   140003067:	5d                   	pop    rbp
   140003068:	c3                   	ret

0000000140003069 <__pformat_wputchars>:
   140003069:	55                   	push   rbp
   14000306a:	48 89 e5             	mov    rbp,rsp
   14000306d:	48 83 ec 50          	sub    rsp,0x50
   140003071:	48 89 4d 10          	mov    QWORD PTR [rbp+0x10],rcx
   140003075:	89 55 18             	mov    DWORD PTR [rbp+0x18],edx
   140003078:	4c 89 45 20          	mov    QWORD PTR [rbp+0x20],r8
   14000307c:	48 8d 55 d8          	lea    rdx,[rbp-0x28]
   140003080:	48 8d 45 e0          	lea    rax,[rbp-0x20]
   140003084:	49 89 d0             	mov    r8,rdx
   140003087:	ba 00 00 00 00       	mov    edx,0x0
   14000308c:	48 89 c1             	mov    rcx,rax
   14000308f:	e8 3c 5a 00 00       	call   140008ad0 <wcrtomb>
   140003094:	89 45 fc             	mov    DWORD PTR [rbp-0x4],eax
   140003097:	48 8b 45 20          	mov    rax,QWORD PTR [rbp+0x20]
   14000309b:	8b 40 10             	mov    eax,DWORD PTR [rax+0x10]
   14000309e:	85 c0                	test   eax,eax
   1400030a0:	78 16                	js     1400030b8 <__pformat_wputchars+0x4f>
   1400030a2:	48 8b 45 20          	mov    rax,QWORD PTR [rbp+0x20]
   1400030a6:	8b 40 10             	mov    eax,DWORD PTR [rax+0x10]
   1400030a9:	39 45 18             	cmp    DWORD PTR [rbp+0x18],eax
   1400030ac:	7e 0a                	jle    1400030b8 <__pformat_wputchars+0x4f>
   1400030ae:	48 8b 45 20          	mov    rax,QWORD PTR [rbp+0x20]
   1400030b2:	8b 40 10             	mov    eax,DWORD PTR [rax+0x10]
   1400030b5:	89 45 18             	mov    DWORD PTR [rbp+0x18],eax
   1400030b8:	48 8b 45 20          	mov    rax,QWORD PTR [rbp+0x20]
   1400030bc:	8b 40 0c             	mov    eax,DWORD PTR [rax+0xc]
   1400030bf:	39 45 18             	cmp    DWORD PTR [rbp+0x18],eax
   1400030c2:	7d 15                	jge    1400030d9 <__pformat_wputchars+0x70>
   1400030c4:	48 8b 45 20          	mov    rax,QWORD PTR [rbp+0x20]
   1400030c8:	8b 40 0c             	mov    eax,DWORD PTR [rax+0xc]
   1400030cb:	2b 45 18             	sub    eax,DWORD PTR [rbp+0x18]
   1400030ce:	89 c2                	mov    edx,eax
   1400030d0:	48 8b 45 20          	mov    rax,QWORD PTR [rbp+0x20]
   1400030d4:	89 50 0c             	mov    DWORD PTR [rax+0xc],edx
   1400030d7:	eb 0b                	jmp    1400030e4 <__pformat_wputchars+0x7b>
   1400030d9:	48 8b 45 20          	mov    rax,QWORD PTR [rbp+0x20]
   1400030dd:	c7 40 0c ff ff ff ff 	mov    DWORD PTR [rax+0xc],0xffffffff
   1400030e4:	48 8b 45 20          	mov    rax,QWORD PTR [rbp+0x20]
   1400030e8:	8b 40 0c             	mov    eax,DWORD PTR [rax+0xc]
   1400030eb:	85 c0                	test   eax,eax
   1400030ed:	7e 6e                	jle    14000315d <__pformat_wputchars+0xf4>
   1400030ef:	48 8b 45 20          	mov    rax,QWORD PTR [rbp+0x20]
   1400030f3:	8b 40 08             	mov    eax,DWORD PTR [rax+0x8]
   1400030f6:	25 00 04 00 00       	and    eax,0x400
   1400030fb:	85 c0                	test   eax,eax
   1400030fd:	75 5e                	jne    14000315d <__pformat_wputchars+0xf4>
   1400030ff:	eb 11                	jmp    140003112 <__pformat_wputchars+0xa9>
   140003101:	48 8b 45 20          	mov    rax,QWORD PTR [rbp+0x20]
   140003105:	48 89 c2             	mov    rdx,rax
   140003108:	b9 20 00 00 00       	mov    ecx,0x20
   14000310d:	e8 4e fd ff ff       	call   140002e60 <__pformat_putc>
   140003112:	48 8b 45 20          	mov    rax,QWORD PTR [rbp+0x20]
   140003116:	8b 40 0c             	mov    eax,DWORD PTR [rax+0xc]
   140003119:	8d 48 ff             	lea    ecx,[rax-0x1]
   14000311c:	48 8b 55 20          	mov    rdx,QWORD PTR [rbp+0x20]
   140003120:	89 4a 0c             	mov    DWORD PTR [rdx+0xc],ecx
   140003123:	85 c0                	test   eax,eax
   140003125:	75 da                	jne    140003101 <__pformat_wputchars+0x98>
   140003127:	eb 34                	jmp    14000315d <__pformat_wputchars+0xf4>
   140003129:	48 8d 45 e0          	lea    rax,[rbp-0x20]
   14000312d:	48 89 45 f0          	mov    QWORD PTR [rbp-0x10],rax
   140003131:	eb 1d                	jmp    140003150 <__pformat_wputchars+0xe7>
   140003133:	48 8b 45 f0          	mov    rax,QWORD PTR [rbp-0x10]
   140003137:	48 8d 50 01          	lea    rdx,[rax+0x1]
   14000313b:	48 89 55 f0          	mov    QWORD PTR [rbp-0x10],rdx
   14000313f:	0f b6 00             	movzx  eax,BYTE PTR [rax]
   140003142:	0f be c0             	movsx  eax,al
   140003145:	48 8b 55 20          	mov    rdx,QWORD PTR [rbp+0x20]
   140003149:	89 c1                	mov    ecx,eax
   14000314b:	e8 10 fd ff ff       	call   140002e60 <__pformat_putc>
   140003150:	8b 45 fc             	mov    eax,DWORD PTR [rbp-0x4]
   140003153:	8d 50 ff             	lea    edx,[rax-0x1]
   140003156:	89 55 fc             	mov    DWORD PTR [rbp-0x4],edx
   140003159:	85 c0                	test   eax,eax
   14000315b:	7f d6                	jg     140003133 <__pformat_wputchars+0xca>
   14000315d:	8b 45 18             	mov    eax,DWORD PTR [rbp+0x18]
   140003160:	8d 50 ff             	lea    edx,[rax-0x1]
   140003163:	89 55 18             	mov    DWORD PTR [rbp+0x18],edx
   140003166:	85 c0                	test   eax,eax
   140003168:	7e 41                	jle    1400031ab <__pformat_wputchars+0x142>
   14000316a:	48 8b 45 10          	mov    rax,QWORD PTR [rbp+0x10]
   14000316e:	48 8d 50 02          	lea    rdx,[rax+0x2]
   140003172:	48 89 55 10          	mov    QWORD PTR [rbp+0x10],rdx
   140003176:	0f b7 00             	movzx  eax,WORD PTR [rax]
   140003179:	0f b7 d0             	movzx  edx,ax
   14000317c:	48 8d 4d d8          	lea    rcx,[rbp-0x28]
   140003180:	48 8d 45 e0          	lea    rax,[rbp-0x20]
   140003184:	49 89 c8             	mov    r8,rcx
   140003187:	48 89 c1             	mov    rcx,rax
   14000318a:	e8 41 59 00 00       	call   140008ad0 <wcrtomb>
   14000318f:	89 45 fc             	mov    DWORD PTR [rbp-0x4],eax
   140003192:	83 7d fc 00          	cmp    DWORD PTR [rbp-0x4],0x0
   140003196:	7f 91                	jg     140003129 <__pformat_wputchars+0xc0>
   140003198:	eb 11                	jmp    1400031ab <__pformat_wputchars+0x142>
   14000319a:	48 8b 45 20          	mov    rax,QWORD PTR [rbp+0x20]
   14000319e:	48 89 c2             	mov    rdx,rax
   1400031a1:	b9 20 00 00 00       	mov    ecx,0x20
   1400031a6:	e8 b5 fc ff ff       	call   140002e60 <__pformat_putc>
   1400031ab:	48 8b 45 20          	mov    rax,QWORD PTR [rbp+0x20]
   1400031af:	8b 40 0c             	mov    eax,DWORD PTR [rax+0xc]
   1400031b2:	8d 48 ff             	lea    ecx,[rax-0x1]
   1400031b5:	48 8b 55 20          	mov    rdx,QWORD PTR [rbp+0x20]
   1400031b9:	89 4a 0c             	mov    DWORD PTR [rdx+0xc],ecx
   1400031bc:	85 c0                	test   eax,eax
   1400031be:	7f da                	jg     14000319a <__pformat_wputchars+0x131>
   1400031c0:	90                   	nop
   1400031c1:	90                   	nop
   1400031c2:	48 83 c4 50          	add    rsp,0x50
   1400031c6:	5d                   	pop    rbp
   1400031c7:	c3                   	ret

00000001400031c8 <__pformat_wcputs>:
   1400031c8:	55                   	push   rbp
   1400031c9:	48 89 e5             	mov    rbp,rsp
   1400031cc:	48 83 ec 20          	sub    rsp,0x20
   1400031d0:	48 89 4d 10          	mov    QWORD PTR [rbp+0x10],rcx
   1400031d4:	48 89 55 18          	mov    QWORD PTR [rbp+0x18],rdx
   1400031d8:	48 83 7d 10 00       	cmp    QWORD PTR [rbp+0x10],0x0
   1400031dd:	75 0b                	jne    1400031ea <__pformat_wcputs+0x22>
   1400031df:	48 8d 05 72 81 00 00 	lea    rax,[rip+0x8172]        # 14000b358 <.rdata+0x8>
   1400031e6:	48 89 45 10          	mov    QWORD PTR [rbp+0x10],rax
   1400031ea:	48 8b 45 18          	mov    rax,QWORD PTR [rbp+0x18]
   1400031ee:	8b 40 10             	mov    eax,DWORD PTR [rax+0x10]
   1400031f1:	85 c0                	test   eax,eax
   1400031f3:	78 2f                	js     140003224 <__pformat_wcputs+0x5c>
   1400031f5:	48 8b 45 18          	mov    rax,QWORD PTR [rbp+0x18]
   1400031f9:	8b 40 10             	mov    eax,DWORD PTR [rax+0x10]
   1400031fc:	48 63 d0             	movsxd rdx,eax
   1400031ff:	48 8b 45 10          	mov    rax,QWORD PTR [rbp+0x10]
   140003203:	48 89 c1             	mov    rcx,rax
   140003206:	e8 b5 57 00 00       	call   1400089c0 <wcsnlen>
   14000320b:	89 c1                	mov    ecx,eax
   14000320d:	48 8b 55 18          	mov    rdx,QWORD PTR [rbp+0x18]
   140003211:	48 8b 45 10          	mov    rax,QWORD PTR [rbp+0x10]
   140003215:	49 89 d0             	mov    r8,rdx
   140003218:	89 ca                	mov    edx,ecx
   14000321a:	48 89 c1             	mov    rcx,rax
   14000321d:	e8 47 fe ff ff       	call   140003069 <__pformat_wputchars>
   140003222:	eb 23                	jmp    140003247 <__pformat_wcputs+0x7f>
   140003224:	48 8b 45 10          	mov    rax,QWORD PTR [rbp+0x10]
   140003228:	48 89 c1             	mov    rcx,rax
   14000322b:	e8 00 62 00 00       	call   140009430 <wcslen>
   140003230:	89 c1                	mov    ecx,eax
   140003232:	48 8b 55 18          	mov    rdx,QWORD PTR [rbp+0x18]
   140003236:	48 8b 45 10          	mov    rax,QWORD PTR [rbp+0x10]
   14000323a:	49 89 d0             	mov    r8,rdx
   14000323d:	89 ca                	mov    edx,ecx
   14000323f:	48 89 c1             	mov    rcx,rax
   140003242:	e8 22 fe ff ff       	call   140003069 <__pformat_wputchars>
   140003247:	90                   	nop
   140003248:	48 83 c4 20          	add    rsp,0x20
   14000324c:	5d                   	pop    rbp
   14000324d:	c3                   	ret

000000014000324e <__pformat_int_bufsiz>:
   14000324e:	55                   	push   rbp
   14000324f:	48 89 e5             	mov    rbp,rsp
   140003252:	89 4d 10             	mov    DWORD PTR [rbp+0x10],ecx
   140003255:	89 55 18             	mov    DWORD PTR [rbp+0x18],edx
   140003258:	4c 89 45 20          	mov    QWORD PTR [rbp+0x20],r8
   14000325c:	8b 45 18             	mov    eax,DWORD PTR [rbp+0x18]
   14000325f:	83 e8 01             	sub    eax,0x1
   140003262:	48 98                	cdqe
   140003264:	48 83 c0 40          	add    rax,0x40
   140003268:	8b 55 18             	mov    edx,DWORD PTR [rbp+0x18]
   14000326b:	48 63 ca             	movsxd rcx,edx
   14000326e:	ba 00 00 00 00       	mov    edx,0x0
   140003273:	48 f7 f1             	div    rcx
   140003276:	89 c2                	mov    edx,eax
   140003278:	8b 45 10             	mov    eax,DWORD PTR [rbp+0x10]
   14000327b:	01 d0                	add    eax,edx
   14000327d:	89 45 18             	mov    DWORD PTR [rbp+0x18],eax
   140003280:	48 8b 45 20          	mov    rax,QWORD PTR [rbp+0x20]
   140003284:	8b 40 10             	mov    eax,DWORD PTR [rax+0x10]
   140003287:	ba 00 00 00 00       	mov    edx,0x0
   14000328c:	85 c0                	test   eax,eax
   14000328e:	0f 48 c2             	cmovs  eax,edx
   140003291:	01 45 18             	add    DWORD PTR [rbp+0x18],eax
   140003294:	48 8b 45 20          	mov    rax,QWORD PTR [rbp+0x20]
   140003298:	8b 40 08             	mov    eax,DWORD PTR [rax+0x8]
   14000329b:	25 00 10 00 00       	and    eax,0x1000
   1400032a0:	85 c0                	test   eax,eax
   1400032a2:	74 29                	je     1400032cd <__pformat_int_bufsiz+0x7f>
   1400032a4:	48 8b 45 20          	mov    rax,QWORD PTR [rbp+0x20]
   1400032a8:	0f b7 40 20          	movzx  eax,WORD PTR [rax+0x20]
   1400032ac:	66 85 c0             	test   ax,ax
   1400032af:	74 1c                	je     1400032cd <__pformat_int_bufsiz+0x7f>
   1400032b1:	8b 45 18             	mov    eax,DWORD PTR [rbp+0x18]
   1400032b4:	48 63 d0             	movsxd rdx,eax
   1400032b7:	48 69 d2 56 55 55 55 	imul   rdx,rdx,0x55555556
   1400032be:	48 89 d1             	mov    rcx,rdx
   1400032c1:	48 c1 e9 20          	shr    rcx,0x20
   1400032c5:	99                   	cdq
   1400032c6:	89 c8                	mov    eax,ecx
   1400032c8:	29 d0                	sub    eax,edx
   1400032ca:	01 45 18             	add    DWORD PTR [rbp+0x18],eax
   1400032cd:	48 8b 45 20          	mov    rax,QWORD PTR [rbp+0x20]
   1400032d1:	8b 50 0c             	mov    edx,DWORD PTR [rax+0xc]
   1400032d4:	8b 45 18             	mov    eax,DWORD PTR [rbp+0x18]
   1400032d7:	39 c2                	cmp    edx,eax
   1400032d9:	0f 4d c2             	cmovge eax,edx
   1400032dc:	5d                   	pop    rbp
   1400032dd:	c3                   	ret

00000001400032de <__pformat_int>:
   1400032de:	55                   	push   rbp
   1400032df:	53                   	push   rbx
   1400032e0:	48 83 ec 58          	sub    rsp,0x58
   1400032e4:	48 8d 6c 24 50       	lea    rbp,[rsp+0x50]
   1400032e9:	48 89 cb             	mov    rbx,rcx
   1400032ec:	48 8b 0b             	mov    rcx,QWORD PTR [rbx]
   1400032ef:	48 8b 5b 08          	mov    rbx,QWORD PTR [rbx+0x8]
   1400032f3:	48 89 4d d0          	mov    QWORD PTR [rbp-0x30],rcx
   1400032f7:	48 89 5d d8          	mov    QWORD PTR [rbp-0x28],rbx
   1400032fb:	48 89 55 28          	mov    QWORD PTR [rbp+0x28],rdx
   1400032ff:	48 8b 45 28          	mov    rax,QWORD PTR [rbp+0x28]
   140003303:	49 89 c0             	mov    r8,rax
   140003306:	ba 03 00 00 00       	mov    edx,0x3
   14000330b:	b9 01 00 00 00       	mov    ecx,0x1
   140003310:	e8 39 ff ff ff       	call   14000324e <__pformat_int_bufsiz>
   140003315:	89 45 f0             	mov    DWORD PTR [rbp-0x10],eax
   140003318:	48 c7 45 e8 00 00 00 	mov    QWORD PTR [rbp-0x18],0x0
   14000331f:	00 
   140003320:	8b 45 f0             	mov    eax,DWORD PTR [rbp-0x10]
   140003323:	48 98                	cdqe
   140003325:	48 83 c0 0f          	add    rax,0xf
   140003329:	48 c1 e8 04          	shr    rax,0x4
   14000332d:	48 c1 e0 04          	shl    rax,0x4
   140003331:	e8 6a fa ff ff       	call   140002da0 <___chkstk_ms>
   140003336:	48 29 c4             	sub    rsp,rax
   140003339:	48 8d 44 24 20       	lea    rax,[rsp+0x20]
   14000333e:	48 83 c0 0f          	add    rax,0xf
   140003342:	48 c1 e8 04          	shr    rax,0x4
   140003346:	48 c1 e0 04          	shl    rax,0x4
   14000334a:	48 89 45 e8          	mov    QWORD PTR [rbp-0x18],rax
   14000334e:	48 8b 45 e8          	mov    rax,QWORD PTR [rbp-0x18]
   140003352:	48 89 45 f8          	mov    QWORD PTR [rbp-0x8],rax
   140003356:	48 8b 45 28          	mov    rax,QWORD PTR [rbp+0x28]
   14000335a:	8b 40 08             	mov    eax,DWORD PTR [rax+0x8]
   14000335d:	25 80 00 00 00       	and    eax,0x80
   140003362:	85 c0                	test   eax,eax
   140003364:	0f 84 ea 00 00 00    	je     140003454 <__pformat_int+0x176>
   14000336a:	48 8b 45 d0          	mov    rax,QWORD PTR [rbp-0x30]
   14000336e:	48 85 c0             	test   rax,rax
   140003371:	79 10                	jns    140003383 <__pformat_int+0xa5>
   140003373:	48 8b 45 d0          	mov    rax,QWORD PTR [rbp-0x30]
   140003377:	48 f7 d8             	neg    rax
   14000337a:	48 89 45 d0          	mov    QWORD PTR [rbp-0x30],rax
   14000337e:	e9 d1 00 00 00       	jmp    140003454 <__pformat_int+0x176>
   140003383:	48 8b 45 28          	mov    rax,QWORD PTR [rbp+0x28]
   140003387:	8b 40 08             	mov    eax,DWORD PTR [rax+0x8]
   14000338a:	24 7f                	and    al,0x7f
   14000338c:	89 c2                	mov    edx,eax
   14000338e:	48 8b 45 28          	mov    rax,QWORD PTR [rbp+0x28]
   140003392:	89 50 08             	mov    DWORD PTR [rax+0x8],edx
   140003395:	e9 ba 00 00 00       	jmp    140003454 <__pformat_int+0x176>
   14000339a:	48 8b 45 f8          	mov    rax,QWORD PTR [rbp-0x8]
   14000339e:	48 3b 45 e8          	cmp    rax,QWORD PTR [rbp-0x18]
   1400033a2:	74 54                	je     1400033f8 <__pformat_int+0x11a>
   1400033a4:	48 8b 45 28          	mov    rax,QWORD PTR [rbp+0x28]
   1400033a8:	8b 40 08             	mov    eax,DWORD PTR [rax+0x8]
   1400033ab:	25 00 10 00 00       	and    eax,0x1000
   1400033b0:	85 c0                	test   eax,eax
   1400033b2:	74 44                	je     1400033f8 <__pformat_int+0x11a>
   1400033b4:	48 8b 45 28          	mov    rax,QWORD PTR [rbp+0x28]
   1400033b8:	0f b7 40 20          	movzx  eax,WORD PTR [rax+0x20]
   1400033bc:	66 85 c0             	test   ax,ax
   1400033bf:	74 37                	je     1400033f8 <__pformat_int+0x11a>
   1400033c1:	48 8b 45 f8          	mov    rax,QWORD PTR [rbp-0x8]
   1400033c5:	48 2b 45 e8          	sub    rax,QWORD PTR [rbp-0x18]
   1400033c9:	48 89 c2             	mov    rdx,rax
   1400033cc:	48 89 d0             	mov    rax,rdx
   1400033cf:	48 c1 f8 3f          	sar    rax,0x3f
   1400033d3:	48 c1 e8 3e          	shr    rax,0x3e
   1400033d7:	48 01 c2             	add    rdx,rax
   1400033da:	83 e2 03             	and    edx,0x3
   1400033dd:	48 29 c2             	sub    rdx,rax
   1400033e0:	48 89 d0             	mov    rax,rdx
   1400033e3:	48 83 f8 03          	cmp    rax,0x3
   1400033e7:	75 0f                	jne    1400033f8 <__pformat_int+0x11a>
   1400033e9:	48 8b 45 f8          	mov    rax,QWORD PTR [rbp-0x8]
   1400033ed:	48 8d 50 01          	lea    rdx,[rax+0x1]
   1400033f1:	48 89 55 f8          	mov    QWORD PTR [rbp-0x8],rdx
   1400033f5:	c6 00 2c             	mov    BYTE PTR [rax],0x2c
   1400033f8:	48 8b 4d d0          	mov    rcx,QWORD PTR [rbp-0x30]
   1400033fc:	48 ba cd cc cc cc cc 	movabs rdx,0xcccccccccccccccd
   140003403:	cc cc cc 
   140003406:	48 89 c8             	mov    rax,rcx
   140003409:	48 f7 e2             	mul    rdx
   14000340c:	48 c1 ea 03          	shr    rdx,0x3
   140003410:	48 89 d0             	mov    rax,rdx
   140003413:	48 c1 e0 02          	shl    rax,0x2
   140003417:	48 01 d0             	add    rax,rdx
   14000341a:	48 01 c0             	add    rax,rax
   14000341d:	48 29 c1             	sub    rcx,rax
   140003420:	48 89 ca             	mov    rdx,rcx
   140003423:	89 d0                	mov    eax,edx
   140003425:	8d 48 30             	lea    ecx,[rax+0x30]
   140003428:	48 8b 45 f8          	mov    rax,QWORD PTR [rbp-0x8]
   14000342c:	48 8d 50 01          	lea    rdx,[rax+0x1]
   140003430:	48 89 55 f8          	mov    QWORD PTR [rbp-0x8],rdx
   140003434:	89 ca                	mov    edx,ecx
   140003436:	88 10                	mov    BYTE PTR [rax],dl
   140003438:	48 8b 45 d0          	mov    rax,QWORD PTR [rbp-0x30]
   14000343c:	48 ba cd cc cc cc cc 	movabs rdx,0xcccccccccccccccd
   140003443:	cc cc cc 
   140003446:	48 f7 e2             	mul    rdx
   140003449:	48 89 d0             	mov    rax,rdx
   14000344c:	48 c1 e8 03          	shr    rax,0x3
   140003450:	48 89 45 d0          	mov    QWORD PTR [rbp-0x30],rax
   140003454:	48 8b 45 d0          	mov    rax,QWORD PTR [rbp-0x30]
   140003458:	48 85 c0             	test   rax,rax
   14000345b:	0f 85 39 ff ff ff    	jne    14000339a <__pformat_int+0xbc>
   140003461:	48 8b 45 28          	mov    rax,QWORD PTR [rbp+0x28]
   140003465:	8b 40 10             	mov    eax,DWORD PTR [rax+0x10]
   140003468:	85 c0                	test   eax,eax
   14000346a:	7e 3e                	jle    1400034aa <__pformat_int+0x1cc>
   14000346c:	48 8b 45 28          	mov    rax,QWORD PTR [rbp+0x28]
   140003470:	8b 40 10             	mov    eax,DWORD PTR [rax+0x10]
   140003473:	89 c1                	mov    ecx,eax
   140003475:	48 8b 45 f8          	mov    rax,QWORD PTR [rbp-0x8]
   140003479:	48 2b 45 e8          	sub    rax,QWORD PTR [rbp-0x18]
   14000347d:	89 c2                	mov    edx,eax
   14000347f:	89 c8                	mov    eax,ecx
   140003481:	29 d0                	sub    eax,edx
   140003483:	89 45 f4             	mov    DWORD PTR [rbp-0xc],eax
   140003486:	83 7d f4 00          	cmp    DWORD PTR [rbp-0xc],0x0
   14000348a:	7e 1e                	jle    1400034aa <__pformat_int+0x1cc>
   14000348c:	eb 0f                	jmp    14000349d <__pformat_int+0x1bf>
   14000348e:	48 8b 45 f8          	mov    rax,QWORD PTR [rbp-0x8]
   140003492:	48 8d 50 01          	lea    rdx,[rax+0x1]
   140003496:	48 89 55 f8          	mov    QWORD PTR [rbp-0x8],rdx
   14000349a:	c6 00 30             	mov    BYTE PTR [rax],0x30
   14000349d:	8b 45 f4             	mov    eax,DWORD PTR [rbp-0xc]
   1400034a0:	8d 50 ff             	lea    edx,[rax-0x1]
   1400034a3:	89 55 f4             	mov    DWORD PTR [rbp-0xc],edx
   1400034a6:	85 c0                	test   eax,eax
   1400034a8:	7f e4                	jg     14000348e <__pformat_int+0x1b0>
   1400034aa:	48 8b 45 f8          	mov    rax,QWORD PTR [rbp-0x8]
   1400034ae:	48 3b 45 e8          	cmp    rax,QWORD PTR [rbp-0x18]
   1400034b2:	75 1a                	jne    1400034ce <__pformat_int+0x1f0>
   1400034b4:	48 8b 45 28          	mov    rax,QWORD PTR [rbp+0x28]
   1400034b8:	8b 40 10             	mov    eax,DWORD PTR [rax+0x10]
   1400034bb:	85 c0                	test   eax,eax
   1400034bd:	74 0f                	je     1400034ce <__pformat_int+0x1f0>
   1400034bf:	48 8b 45 f8          	mov    rax,QWORD PTR [rbp-0x8]
   1400034c3:	48 8d 50 01          	lea    rdx,[rax+0x1]
   1400034c7:	48 89 55 f8          	mov    QWORD PTR [rbp-0x8],rdx
   1400034cb:	c6 00 30             	mov    BYTE PTR [rax],0x30
   1400034ce:	48 8b 45 28          	mov    rax,QWORD PTR [rbp+0x28]
   1400034d2:	8b 40 0c             	mov    eax,DWORD PTR [rax+0xc]
   1400034d5:	85 c0                	test   eax,eax
   1400034d7:	0f 8e ce 00 00 00    	jle    1400035ab <__pformat_int+0x2cd>
   1400034dd:	48 8b 45 28          	mov    rax,QWORD PTR [rbp+0x28]
   1400034e1:	8b 40 0c             	mov    eax,DWORD PTR [rax+0xc]
   1400034e4:	89 c1                	mov    ecx,eax
   1400034e6:	48 8b 45 f8          	mov    rax,QWORD PTR [rbp-0x8]
   1400034ea:	48 2b 45 e8          	sub    rax,QWORD PTR [rbp-0x18]
   1400034ee:	89 c2                	mov    edx,eax
   1400034f0:	89 c8                	mov    eax,ecx
   1400034f2:	29 d0                	sub    eax,edx
   1400034f4:	89 c2                	mov    edx,eax
   1400034f6:	48 8b 45 28          	mov    rax,QWORD PTR [rbp+0x28]
   1400034fa:	89 50 0c             	mov    DWORD PTR [rax+0xc],edx
   1400034fd:	48 8b 45 28          	mov    rax,QWORD PTR [rbp+0x28]
   140003501:	8b 40 0c             	mov    eax,DWORD PTR [rax+0xc]
   140003504:	85 c0                	test   eax,eax
   140003506:	0f 8e 9f 00 00 00    	jle    1400035ab <__pformat_int+0x2cd>
   14000350c:	48 8b 45 28          	mov    rax,QWORD PTR [rbp+0x28]
   140003510:	8b 40 08             	mov    eax,DWORD PTR [rax+0x8]
   140003513:	25 c0 01 00 00       	and    eax,0x1c0
   140003518:	85 c0                	test   eax,eax
   14000351a:	74 11                	je     14000352d <__pformat_int+0x24f>
   14000351c:	48 8b 45 28          	mov    rax,QWORD PTR [rbp+0x28]
   140003520:	8b 40 0c             	mov    eax,DWORD PTR [rax+0xc]
   140003523:	8d 50 ff             	lea    edx,[rax-0x1]
   140003526:	48 8b 45 28          	mov    rax,QWORD PTR [rbp+0x28]
   14000352a:	89 50 0c             	mov    DWORD PTR [rax+0xc],edx
   14000352d:	48 8b 45 28          	mov    rax,QWORD PTR [rbp+0x28]
   140003531:	8b 40 10             	mov    eax,DWORD PTR [rax+0x10]
   140003534:	85 c0                	test   eax,eax
   140003536:	79 3b                	jns    140003573 <__pformat_int+0x295>
   140003538:	48 8b 45 28          	mov    rax,QWORD PTR [rbp+0x28]
   14000353c:	8b 40 08             	mov    eax,DWORD PTR [rax+0x8]
   14000353f:	25 00 06 00 00       	and    eax,0x600
   140003544:	3d 00 02 00 00       	cmp    eax,0x200
   140003549:	75 28                	jne    140003573 <__pformat_int+0x295>
   14000354b:	eb 0f                	jmp    14000355c <__pformat_int+0x27e>
   14000354d:	48 8b 45 f8          	mov    rax,QWORD PTR [rbp-0x8]
   140003551:	48 8d 50 01          	lea    rdx,[rax+0x1]
   140003555:	48 89 55 f8          	mov    QWORD PTR [rbp-0x8],rdx
   140003559:	c6 00 30             	mov    BYTE PTR [rax],0x30
   14000355c:	48 8b 45 28          	mov    rax,QWORD PTR [rbp+0x28]
   140003560:	8b 40 0c             	mov    eax,DWORD PTR [rax+0xc]
   140003563:	8d 48 ff             	lea    ecx,[rax-0x1]
   140003566:	48 8b 55 28          	mov    rdx,QWORD PTR [rbp+0x28]
   14000356a:	89 4a 0c             	mov    DWORD PTR [rdx+0xc],ecx
   14000356d:	85 c0                	test   eax,eax
   14000356f:	7f dc                	jg     14000354d <__pformat_int+0x26f>
   140003571:	eb 38                	jmp    1400035ab <__pformat_int+0x2cd>
   140003573:	48 8b 45 28          	mov    rax,QWORD PTR [rbp+0x28]
   140003577:	8b 40 08             	mov    eax,DWORD PTR [rax+0x8]
   14000357a:	25 00 04 00 00       	and    eax,0x400
   14000357f:	85 c0                	test   eax,eax
   140003581:	75 28                	jne    1400035ab <__pformat_int+0x2cd>
   140003583:	eb 11                	jmp    140003596 <__pformat_int+0x2b8>
   140003585:	48 8b 45 28          	mov    rax,QWORD PTR [rbp+0x28]
   140003589:	48 89 c2             	mov    rdx,rax
   14000358c:	b9 20 00 00 00       	mov    ecx,0x20
   140003591:	e8 ca f8 ff ff       	call   140002e60 <__pformat_putc>
   140003596:	48 8b 45 28          	mov    rax,QWORD PTR [rbp+0x28]
   14000359a:	8b 40 0c             	mov    eax,DWORD PTR [rax+0xc]
   14000359d:	8d 48 ff             	lea    ecx,[rax-0x1]
   1400035a0:	48 8b 55 28          	mov    rdx,QWORD PTR [rbp+0x28]
   1400035a4:	89 4a 0c             	mov    DWORD PTR [rdx+0xc],ecx
   1400035a7:	85 c0                	test   eax,eax
   1400035a9:	7f da                	jg     140003585 <__pformat_int+0x2a7>
   1400035ab:	48 8b 45 28          	mov    rax,QWORD PTR [rbp+0x28]
   1400035af:	8b 40 08             	mov    eax,DWORD PTR [rax+0x8]
   1400035b2:	25 80 00 00 00       	and    eax,0x80
   1400035b7:	85 c0                	test   eax,eax
   1400035b9:	74 11                	je     1400035cc <__pformat_int+0x2ee>
   1400035bb:	48 8b 45 f8          	mov    rax,QWORD PTR [rbp-0x8]
   1400035bf:	48 8d 50 01          	lea    rdx,[rax+0x1]
   1400035c3:	48 89 55 f8          	mov    QWORD PTR [rbp-0x8],rdx
   1400035c7:	c6 00 2d             	mov    BYTE PTR [rax],0x2d
   1400035ca:	eb 5a                	jmp    140003626 <__pformat_int+0x348>
   1400035cc:	48 8b 45 28          	mov    rax,QWORD PTR [rbp+0x28]
   1400035d0:	8b 40 08             	mov    eax,DWORD PTR [rax+0x8]
   1400035d3:	25 00 01 00 00       	and    eax,0x100
   1400035d8:	85 c0                	test   eax,eax
   1400035da:	74 11                	je     1400035ed <__pformat_int+0x30f>
   1400035dc:	48 8b 45 f8          	mov    rax,QWORD PTR [rbp-0x8]
   1400035e0:	48 8d 50 01          	lea    rdx,[rax+0x1]
   1400035e4:	48 89 55 f8          	mov    QWORD PTR [rbp-0x8],rdx
   1400035e8:	c6 00 2b             	mov    BYTE PTR [rax],0x2b
   1400035eb:	eb 39                	jmp    140003626 <__pformat_int+0x348>
   1400035ed:	48 8b 45 28          	mov    rax,QWORD PTR [rbp+0x28]
   1400035f1:	8b 40 08             	mov    eax,DWORD PTR [rax+0x8]
   1400035f4:	83 e0 40             	and    eax,0x40
   1400035f7:	85 c0                	test   eax,eax
   1400035f9:	74 2b                	je     140003626 <__pformat_int+0x348>
   1400035fb:	48 8b 45 f8          	mov    rax,QWORD PTR [rbp-0x8]
   1400035ff:	48 8d 50 01          	lea    rdx,[rax+0x1]
   140003603:	48 89 55 f8          	mov    QWORD PTR [rbp-0x8],rdx
   140003607:	c6 00 20             	mov    BYTE PTR [rax],0x20
   14000360a:	eb 1a                	jmp    140003626 <__pformat_int+0x348>
   14000360c:	48 83 6d f8 01       	sub    QWORD PTR [rbp-0x8],0x1
   140003611:	48 8b 45 f8          	mov    rax,QWORD PTR [rbp-0x8]
   140003615:	0f b6 00             	movzx  eax,BYTE PTR [rax]
   140003618:	0f be c0             	movsx  eax,al
   14000361b:	48 8b 55 28          	mov    rdx,QWORD PTR [rbp+0x28]
   14000361f:	89 c1                	mov    ecx,eax
   140003621:	e8 3a f8 ff ff       	call   140002e60 <__pformat_putc>
   140003626:	48 8b 45 f8          	mov    rax,QWORD PTR [rbp-0x8]
   14000362a:	48 39 45 e8          	cmp    QWORD PTR [rbp-0x18],rax
   14000362e:	72 dc                	jb     14000360c <__pformat_int+0x32e>
   140003630:	eb 11                	jmp    140003643 <__pformat_int+0x365>
   140003632:	48 8b 45 28          	mov    rax,QWORD PTR [rbp+0x28]
   140003636:	48 89 c2             	mov    rdx,rax
   140003639:	b9 20 00 00 00       	mov    ecx,0x20
   14000363e:	e8 1d f8 ff ff       	call   140002e60 <__pformat_putc>
   140003643:	48 8b 45 28          	mov    rax,QWORD PTR [rbp+0x28]
   140003647:	8b 40 0c             	mov    eax,DWORD PTR [rax+0xc]
   14000364a:	8d 48 ff             	lea    ecx,[rax-0x1]
   14000364d:	48 8b 55 28          	mov    rdx,QWORD PTR [rbp+0x28]
   140003651:	89 4a 0c             	mov    DWORD PTR [rdx+0xc],ecx
   140003654:	85 c0                	test   eax,eax
   140003656:	7f da                	jg     140003632 <__pformat_int+0x354>
   140003658:	90                   	nop
   140003659:	90                   	nop
   14000365a:	48 8d 65 08          	lea    rsp,[rbp+0x8]
   14000365e:	5b                   	pop    rbx
   14000365f:	5d                   	pop    rbp
   140003660:	c3                   	ret

0000000140003661 <__pformat_xint>:
   140003661:	55                   	push   rbp
   140003662:	53                   	push   rbx
   140003663:	48 83 ec 68          	sub    rsp,0x68
   140003667:	48 8d 6c 24 60       	lea    rbp,[rsp+0x60]
   14000366c:	89 4d 20             	mov    DWORD PTR [rbp+0x20],ecx
   14000366f:	48 89 d3             	mov    rbx,rdx
   140003672:	48 8b 03             	mov    rax,QWORD PTR [rbx]
   140003675:	48 8b 53 08          	mov    rdx,QWORD PTR [rbx+0x8]
   140003679:	48 89 45 c0          	mov    QWORD PTR [rbp-0x40],rax
   14000367d:	48 89 55 c8          	mov    QWORD PTR [rbp-0x38],rdx
   140003681:	4c 89 45 30          	mov    QWORD PTR [rbp+0x30],r8
   140003685:	83 7d 20 6f          	cmp    DWORD PTR [rbp+0x20],0x6f
   140003689:	75 09                	jne    140003694 <__pformat_xint+0x33>
   14000368b:	c7 45 f8 03 00 00 00 	mov    DWORD PTR [rbp-0x8],0x3
   140003692:	eb 07                	jmp    14000369b <__pformat_xint+0x3a>
   140003694:	c7 45 f8 04 00 00 00 	mov    DWORD PTR [rbp-0x8],0x4
   14000369b:	48 8b 55 30          	mov    rdx,QWORD PTR [rbp+0x30]
   14000369f:	8b 45 f8             	mov    eax,DWORD PTR [rbp-0x8]
   1400036a2:	49 89 d0             	mov    r8,rdx
   1400036a5:	89 c2                	mov    edx,eax
   1400036a7:	b9 02 00 00 00       	mov    ecx,0x2
   1400036ac:	e8 9d fb ff ff       	call   14000324e <__pformat_int_bufsiz>
   1400036b1:	89 45 e8             	mov    DWORD PTR [rbp-0x18],eax
   1400036b4:	48 c7 45 e0 00 00 00 	mov    QWORD PTR [rbp-0x20],0x0
   1400036bb:	00 
   1400036bc:	8b 45 e8             	mov    eax,DWORD PTR [rbp-0x18]
   1400036bf:	48 98                	cdqe
   1400036c1:	48 83 c0 0f          	add    rax,0xf
   1400036c5:	48 c1 e8 04          	shr    rax,0x4
   1400036c9:	48 c1 e0 04          	shl    rax,0x4
   1400036cd:	e8 ce f6 ff ff       	call   140002da0 <___chkstk_ms>
   1400036d2:	48 29 c4             	sub    rsp,rax
   1400036d5:	48 8d 44 24 20       	lea    rax,[rsp+0x20]
   1400036da:	48 83 c0 0f          	add    rax,0xf
   1400036de:	48 c1 e8 04          	shr    rax,0x4
   1400036e2:	48 c1 e0 04          	shl    rax,0x4
   1400036e6:	48 89 45 e0          	mov    QWORD PTR [rbp-0x20],rax
   1400036ea:	48 8b 45 e0          	mov    rax,QWORD PTR [rbp-0x20]
   1400036ee:	48 89 45 f0          	mov    QWORD PTR [rbp-0x10],rax
   1400036f2:	83 7d 20 6f          	cmp    DWORD PTR [rbp+0x20],0x6f
   1400036f6:	75 09                	jne    140003701 <__pformat_xint+0xa0>
   1400036f8:	c7 45 ec 07 00 00 00 	mov    DWORD PTR [rbp-0x14],0x7
   1400036ff:	eb 67                	jmp    140003768 <__pformat_xint+0x107>
   140003701:	c7 45 ec 0f 00 00 00 	mov    DWORD PTR [rbp-0x14],0xf
   140003708:	eb 5e                	jmp    140003768 <__pformat_xint+0x107>
   14000370a:	48 8b 45 c0          	mov    rax,QWORD PTR [rbp-0x40]
   14000370e:	89 c2                	mov    edx,eax
   140003710:	8b 45 ec             	mov    eax,DWORD PTR [rbp-0x14]
   140003713:	21 d0                	and    eax,edx
   140003715:	8d 48 30             	lea    ecx,[rax+0x30]
   140003718:	48 8b 45 f0          	mov    rax,QWORD PTR [rbp-0x10]
   14000371c:	48 8d 50 01          	lea    rdx,[rax+0x1]
   140003720:	48 89 55 f0          	mov    QWORD PTR [rbp-0x10],rdx
   140003724:	48 89 45 d8          	mov    QWORD PTR [rbp-0x28],rax
   140003728:	89 ca                	mov    edx,ecx
   14000372a:	48 8b 45 d8          	mov    rax,QWORD PTR [rbp-0x28]
   14000372e:	88 10                	mov    BYTE PTR [rax],dl
   140003730:	48 8b 45 d8          	mov    rax,QWORD PTR [rbp-0x28]
   140003734:	0f b6 00             	movzx  eax,BYTE PTR [rax]
   140003737:	3c 39                	cmp    al,0x39
   140003739:	7e 1a                	jle    140003755 <__pformat_xint+0xf4>
   14000373b:	48 8b 45 d8          	mov    rax,QWORD PTR [rbp-0x28]
   14000373f:	0f b6 00             	movzx  eax,BYTE PTR [rax]
   140003742:	83 c0 07             	add    eax,0x7
   140003745:	89 c2                	mov    edx,eax
   140003747:	8b 45 20             	mov    eax,DWORD PTR [rbp+0x20]
   14000374a:	83 e0 20             	and    eax,0x20
   14000374d:	09 c2                	or     edx,eax
   14000374f:	48 8b 45 d8          	mov    rax,QWORD PTR [rbp-0x28]
   140003753:	88 10                	mov    BYTE PTR [rax],dl
   140003755:	48 8b 55 c0          	mov    rdx,QWORD PTR [rbp-0x40]
   140003759:	8b 45 f8             	mov    eax,DWORD PTR [rbp-0x8]
   14000375c:	89 c1                	mov    ecx,eax
   14000375e:	48 d3 ea             	shr    rdx,cl
   140003761:	48 89 d0             	mov    rax,rdx
   140003764:	48 89 45 c0          	mov    QWORD PTR [rbp-0x40],rax
   140003768:	48 8b 45 c0          	mov    rax,QWORD PTR [rbp-0x40]
   14000376c:	48 85 c0             	test   rax,rax
   14000376f:	75 99                	jne    14000370a <__pformat_xint+0xa9>
   140003771:	48 8b 45 f0          	mov    rax,QWORD PTR [rbp-0x10]
   140003775:	48 3b 45 e0          	cmp    rax,QWORD PTR [rbp-0x20]
   140003779:	75 13                	jne    14000378e <__pformat_xint+0x12d>
   14000377b:	48 8b 45 30          	mov    rax,QWORD PTR [rbp+0x30]
   14000377f:	8b 40 08             	mov    eax,DWORD PTR [rax+0x8]
   140003782:	80 e4 f7             	and    ah,0xf7
   140003785:	89 c2                	mov    edx,eax
   140003787:	48 8b 45 30          	mov    rax,QWORD PTR [rbp+0x30]
   14000378b:	89 50 08             	mov    DWORD PTR [rax+0x8],edx
   14000378e:	48 8b 45 30          	mov    rax,QWORD PTR [rbp+0x30]
   140003792:	8b 40 10             	mov    eax,DWORD PTR [rax+0x10]
   140003795:	89 45 fc             	mov    DWORD PTR [rbp-0x4],eax
   140003798:	83 7d fc 00          	cmp    DWORD PTR [rbp-0x4],0x0
   14000379c:	7e 3a                	jle    1400037d8 <__pformat_xint+0x177>
   14000379e:	8b 55 fc             	mov    edx,DWORD PTR [rbp-0x4]
   1400037a1:	48 8b 45 f0          	mov    rax,QWORD PTR [rbp-0x10]
   1400037a5:	48 2b 45 e0          	sub    rax,QWORD PTR [rbp-0x20]
   1400037a9:	89 c1                	mov    ecx,eax
   1400037ab:	89 d0                	mov    eax,edx
   1400037ad:	29 c8                	sub    eax,ecx
   1400037af:	89 45 fc             	mov    DWORD PTR [rbp-0x4],eax
   1400037b2:	83 7d fc 00          	cmp    DWORD PTR [rbp-0x4],0x0
   1400037b6:	7e 20                	jle    1400037d8 <__pformat_xint+0x177>
   1400037b8:	eb 0f                	jmp    1400037c9 <__pformat_xint+0x168>
   1400037ba:	48 8b 45 f0          	mov    rax,QWORD PTR [rbp-0x10]
   1400037be:	48 8d 50 01          	lea    rdx,[rax+0x1]
   1400037c2:	48 89 55 f0          	mov    QWORD PTR [rbp-0x10],rdx
   1400037c6:	c6 00 30             	mov    BYTE PTR [rax],0x30
   1400037c9:	8b 45 fc             	mov    eax,DWORD PTR [rbp-0x4]
   1400037cc:	8d 50 ff             	lea    edx,[rax-0x1]
   1400037cf:	89 55 fc             	mov    DWORD PTR [rbp-0x4],edx
   1400037d2:	85 c0                	test   eax,eax
   1400037d4:	7f e4                	jg     1400037ba <__pformat_xint+0x159>
   1400037d6:	eb 25                	jmp    1400037fd <__pformat_xint+0x19c>
   1400037d8:	83 7d 20 6f          	cmp    DWORD PTR [rbp+0x20],0x6f
   1400037dc:	75 1f                	jne    1400037fd <__pformat_xint+0x19c>
   1400037de:	48 8b 45 30          	mov    rax,QWORD PTR [rbp+0x30]
   1400037e2:	8b 40 08             	mov    eax,DWORD PTR [rax+0x8]
   1400037e5:	25 00 08 00 00       	and    eax,0x800
   1400037ea:	85 c0                	test   eax,eax
   1400037ec:	74 0f                	je     1400037fd <__pformat_xint+0x19c>
   1400037ee:	48 8b 45 f0          	mov    rax,QWORD PTR [rbp-0x10]
   1400037f2:	48 8d 50 01          	lea    rdx,[rax+0x1]
   1400037f6:	48 89 55 f0          	mov    QWORD PTR [rbp-0x10],rdx
   1400037fa:	c6 00 30             	mov    BYTE PTR [rax],0x30
   1400037fd:	48 8b 45 f0          	mov    rax,QWORD PTR [rbp-0x10]
   140003801:	48 3b 45 e0          	cmp    rax,QWORD PTR [rbp-0x20]
   140003805:	75 1a                	jne    140003821 <__pformat_xint+0x1c0>
   140003807:	48 8b 45 30          	mov    rax,QWORD PTR [rbp+0x30]
   14000380b:	8b 40 10             	mov    eax,DWORD PTR [rax+0x10]
   14000380e:	85 c0                	test   eax,eax
   140003810:	74 0f                	je     140003821 <__pformat_xint+0x1c0>
   140003812:	48 8b 45 f0          	mov    rax,QWORD PTR [rbp-0x10]
   140003816:	48 8d 50 01          	lea    rdx,[rax+0x1]
   14000381a:	48 89 55 f0          	mov    QWORD PTR [rbp-0x10],rdx
   14000381e:	c6 00 30             	mov    BYTE PTR [rax],0x30
   140003821:	48 8b 45 30          	mov    rax,QWORD PTR [rbp+0x30]
   140003825:	8b 40 0c             	mov    eax,DWORD PTR [rax+0xc]
   140003828:	48 8b 55 f0          	mov    rdx,QWORD PTR [rbp-0x10]
   14000382c:	48 2b 55 e0          	sub    rdx,QWORD PTR [rbp-0x20]
   140003830:	89 55 fc             	mov    DWORD PTR [rbp-0x4],edx
   140003833:	39 45 fc             	cmp    DWORD PTR [rbp-0x4],eax
   140003836:	7d 15                	jge    14000384d <__pformat_xint+0x1ec>
   140003838:	48 8b 45 30          	mov    rax,QWORD PTR [rbp+0x30]
   14000383c:	8b 40 0c             	mov    eax,DWORD PTR [rax+0xc]
   14000383f:	2b 45 fc             	sub    eax,DWORD PTR [rbp-0x4]
   140003842:	89 c2                	mov    edx,eax
   140003844:	48 8b 45 30          	mov    rax,QWORD PTR [rbp+0x30]
   140003848:	89 50 0c             	mov    DWORD PTR [rax+0xc],edx
   14000384b:	eb 0b                	jmp    140003858 <__pformat_xint+0x1f7>
   14000384d:	48 8b 45 30          	mov    rax,QWORD PTR [rbp+0x30]
   140003851:	c7 40 0c ff ff ff ff 	mov    DWORD PTR [rax+0xc],0xffffffff
   140003858:	48 8b 45 30          	mov    rax,QWORD PTR [rbp+0x30]
   14000385c:	8b 40 0c             	mov    eax,DWORD PTR [rax+0xc]
   14000385f:	89 45 fc             	mov    DWORD PTR [rbp-0x4],eax
   140003862:	83 7d fc 00          	cmp    DWORD PTR [rbp-0x4],0x0
   140003866:	7e 1a                	jle    140003882 <__pformat_xint+0x221>
   140003868:	83 7d 20 6f          	cmp    DWORD PTR [rbp+0x20],0x6f
   14000386c:	74 14                	je     140003882 <__pformat_xint+0x221>
   14000386e:	48 8b 45 30          	mov    rax,QWORD PTR [rbp+0x30]
   140003872:	8b 40 08             	mov    eax,DWORD PTR [rax+0x8]
   140003875:	25 00 08 00 00       	and    eax,0x800
   14000387a:	85 c0                	test   eax,eax
   14000387c:	74 04                	je     140003882 <__pformat_xint+0x221>
   14000387e:	83 6d fc 02          	sub    DWORD PTR [rbp-0x4],0x2
   140003882:	83 7d fc 00          	cmp    DWORD PTR [rbp-0x4],0x0
   140003886:	7e 3c                	jle    1400038c4 <__pformat_xint+0x263>
   140003888:	48 8b 45 30          	mov    rax,QWORD PTR [rbp+0x30]
   14000388c:	8b 40 10             	mov    eax,DWORD PTR [rax+0x10]
   14000388f:	85 c0                	test   eax,eax
   140003891:	79 31                	jns    1400038c4 <__pformat_xint+0x263>
   140003893:	48 8b 45 30          	mov    rax,QWORD PTR [rbp+0x30]
   140003897:	8b 40 08             	mov    eax,DWORD PTR [rax+0x8]
   14000389a:	25 00 06 00 00       	and    eax,0x600
   14000389f:	3d 00 02 00 00       	cmp    eax,0x200
   1400038a4:	75 1e                	jne    1400038c4 <__pformat_xint+0x263>
   1400038a6:	eb 0f                	jmp    1400038b7 <__pformat_xint+0x256>
   1400038a8:	48 8b 45 f0          	mov    rax,QWORD PTR [rbp-0x10]
   1400038ac:	48 8d 50 01          	lea    rdx,[rax+0x1]
   1400038b0:	48 89 55 f0          	mov    QWORD PTR [rbp-0x10],rdx
   1400038b4:	c6 00 30             	mov    BYTE PTR [rax],0x30
   1400038b7:	8b 45 fc             	mov    eax,DWORD PTR [rbp-0x4]
   1400038ba:	8d 50 ff             	lea    edx,[rax-0x1]
   1400038bd:	89 55 fc             	mov    DWORD PTR [rbp-0x4],edx
   1400038c0:	85 c0                	test   eax,eax
   1400038c2:	7f e4                	jg     1400038a8 <__pformat_xint+0x247>
   1400038c4:	83 7d 20 6f          	cmp    DWORD PTR [rbp+0x20],0x6f
   1400038c8:	74 30                	je     1400038fa <__pformat_xint+0x299>
   1400038ca:	48 8b 45 30          	mov    rax,QWORD PTR [rbp+0x30]
   1400038ce:	8b 40 08             	mov    eax,DWORD PTR [rax+0x8]
   1400038d1:	25 00 08 00 00       	and    eax,0x800
   1400038d6:	85 c0                	test   eax,eax
   1400038d8:	74 20                	je     1400038fa <__pformat_xint+0x299>
   1400038da:	48 8b 45 f0          	mov    rax,QWORD PTR [rbp-0x10]
   1400038de:	48 8d 50 01          	lea    rdx,[rax+0x1]
   1400038e2:	48 89 55 f0          	mov    QWORD PTR [rbp-0x10],rdx
   1400038e6:	8b 55 20             	mov    edx,DWORD PTR [rbp+0x20]
   1400038e9:	88 10                	mov    BYTE PTR [rax],dl
   1400038eb:	48 8b 45 f0          	mov    rax,QWORD PTR [rbp-0x10]
   1400038ef:	48 8d 50 01          	lea    rdx,[rax+0x1]
   1400038f3:	48 89 55 f0          	mov    QWORD PTR [rbp-0x10],rdx
   1400038f7:	c6 00 30             	mov    BYTE PTR [rax],0x30
   1400038fa:	83 7d fc 00          	cmp    DWORD PTR [rbp-0x4],0x0
   1400038fe:	7e 4c                	jle    14000394c <__pformat_xint+0x2eb>
   140003900:	48 8b 45 30          	mov    rax,QWORD PTR [rbp+0x30]
   140003904:	8b 40 08             	mov    eax,DWORD PTR [rax+0x8]
   140003907:	25 00 04 00 00       	and    eax,0x400
   14000390c:	85 c0                	test   eax,eax
   14000390e:	75 3c                	jne    14000394c <__pformat_xint+0x2eb>
   140003910:	eb 11                	jmp    140003923 <__pformat_xint+0x2c2>
   140003912:	48 8b 45 30          	mov    rax,QWORD PTR [rbp+0x30]
   140003916:	48 89 c2             	mov    rdx,rax
   140003919:	b9 20 00 00 00       	mov    ecx,0x20
   14000391e:	e8 3d f5 ff ff       	call   140002e60 <__pformat_putc>
   140003923:	8b 45 fc             	mov    eax,DWORD PTR [rbp-0x4]
   140003926:	8d 50 ff             	lea    edx,[rax-0x1]
   140003929:	89 55 fc             	mov    DWORD PTR [rbp-0x4],edx
   14000392c:	85 c0                	test   eax,eax
   14000392e:	7f e2                	jg     140003912 <__pformat_xint+0x2b1>
   140003930:	eb 1a                	jmp    14000394c <__pformat_xint+0x2eb>
   140003932:	48 83 6d f0 01       	sub    QWORD PTR [rbp-0x10],0x1
   140003937:	48 8b 45 f0          	mov    rax,QWORD PTR [rbp-0x10]
   14000393b:	0f b6 00             	movzx  eax,BYTE PTR [rax]
   14000393e:	0f be c0             	movsx  eax,al
   140003941:	48 8b 55 30          	mov    rdx,QWORD PTR [rbp+0x30]
   140003945:	89 c1                	mov    ecx,eax
   140003947:	e8 14 f5 ff ff       	call   140002e60 <__pformat_putc>
   14000394c:	48 8b 45 f0          	mov    rax,QWORD PTR [rbp-0x10]
   140003950:	48 39 45 e0          	cmp    QWORD PTR [rbp-0x20],rax
   140003954:	72 dc                	jb     140003932 <__pformat_xint+0x2d1>
   140003956:	eb 11                	jmp    140003969 <__pformat_xint+0x308>
   140003958:	48 8b 45 30          	mov    rax,QWORD PTR [rbp+0x30]
   14000395c:	48 89 c2             	mov    rdx,rax
   14000395f:	b9 20 00 00 00       	mov    ecx,0x20
   140003964:	e8 f7 f4 ff ff       	call   140002e60 <__pformat_putc>
   140003969:	8b 45 fc             	mov    eax,DWORD PTR [rbp-0x4]
   14000396c:	8d 50 ff             	lea    edx,[rax-0x1]
   14000396f:	89 55 fc             	mov    DWORD PTR [rbp-0x4],edx
   140003972:	85 c0                	test   eax,eax
   140003974:	7f e2                	jg     140003958 <__pformat_xint+0x2f7>
   140003976:	90                   	nop
   140003977:	90                   	nop
   140003978:	48 8d 65 08          	lea    rsp,[rbp+0x8]
   14000397c:	5b                   	pop    rbx
   14000397d:	5d                   	pop    rbp
   14000397e:	c3                   	ret

000000014000397f <init_fpreg_ldouble>:
   14000397f:	55                   	push   rbp
   140003980:	53                   	push   rbx
   140003981:	48 83 ec 28          	sub    rsp,0x28
   140003985:	48 8d 6c 24 20       	lea    rbp,[rsp+0x20]
   14000398a:	48 89 4d 20          	mov    QWORD PTR [rbp+0x20],rcx
   14000398e:	48 89 d3             	mov    rbx,rdx
   140003991:	db 2b                	fld    TBYTE PTR [rbx]
   140003993:	db 7d e0             	fstp   TBYTE PTR [rbp-0x20]
   140003996:	db 6d e0             	fld    TBYTE PTR [rbp-0x20]
   140003999:	db 7d f0             	fstp   TBYTE PTR [rbp-0x10]
   14000399c:	48 8b 4d 20          	mov    rcx,QWORD PTR [rbp+0x20]
   1400039a0:	48 8b 45 f0          	mov    rax,QWORD PTR [rbp-0x10]
   1400039a4:	48 8b 55 f8          	mov    rdx,QWORD PTR [rbp-0x8]
   1400039a8:	48 89 01             	mov    QWORD PTR [rcx],rax
   1400039ab:	48 89 51 08          	mov    QWORD PTR [rcx+0x8],rdx
   1400039af:	48 8b 45 20          	mov    rax,QWORD PTR [rbp+0x20]
   1400039b3:	48 83 c4 28          	add    rsp,0x28
   1400039b7:	5b                   	pop    rbx
   1400039b8:	5d                   	pop    rbp
   1400039b9:	c3                   	ret

00000001400039ba <__pformat_cvt>:
   1400039ba:	55                   	push   rbp
   1400039bb:	53                   	push   rbx
   1400039bc:	48 81 ec 88 00 00 00 	sub    rsp,0x88
   1400039c3:	48 8d ac 24 80 00 00 	lea    rbp,[rsp+0x80]
   1400039ca:	00 
   1400039cb:	89 4d 20             	mov    DWORD PTR [rbp+0x20],ecx
   1400039ce:	48 89 d3             	mov    rbx,rdx
   1400039d1:	db 2b                	fld    TBYTE PTR [rbx]
   1400039d3:	db 7d d0             	fstp   TBYTE PTR [rbp-0x30]
   1400039d6:	44 89 45 30          	mov    DWORD PTR [rbp+0x30],r8d
   1400039da:	4c 89 4d 38          	mov    QWORD PTR [rbp+0x38],r9
   1400039de:	c7 45 fc 00 00 00 00 	mov    DWORD PTR [rbp-0x4],0x0
   1400039e5:	48 8d 45 e0          	lea    rax,[rbp-0x20]
   1400039e9:	db 6d d0             	fld    TBYTE PTR [rbp-0x30]
   1400039ec:	db 7d c0             	fstp   TBYTE PTR [rbp-0x40]
   1400039ef:	48 8d 55 c0          	lea    rdx,[rbp-0x40]
   1400039f3:	48 89 c1             	mov    rcx,rax
   1400039f6:	e8 84 ff ff ff       	call   14000397f <init_fpreg_ldouble>
   1400039fb:	db 6d d0             	fld    TBYTE PTR [rbp-0x30]
   1400039fe:	db 7d c0             	fstp   TBYTE PTR [rbp-0x40]
   140003a01:	48 8d 45 c0          	lea    rax,[rbp-0x40]
   140003a05:	48 89 c1             	mov    rcx,rax
   140003a08:	e8 53 4e 00 00       	call   140008860 <__fpclassifyl>
   140003a0d:	89 45 f8             	mov    DWORD PTR [rbp-0x8],eax
   140003a10:	8b 45 f8             	mov    eax,DWORD PTR [rbp-0x8]
   140003a13:	25 00 01 00 00       	and    eax,0x100
   140003a18:	85 c0                	test   eax,eax
   140003a1a:	74 1d                	je     140003a39 <__pformat_cvt+0x7f>
   140003a1c:	8b 45 f8             	mov    eax,DWORD PTR [rbp-0x8]
   140003a1f:	25 00 04 00 00       	and    eax,0x400
   140003a24:	85 c0                	test   eax,eax
   140003a26:	74 07                	je     140003a2f <__pformat_cvt+0x75>
   140003a28:	b8 03 00 00 00       	mov    eax,0x3
   140003a2d:	eb 05                	jmp    140003a34 <__pformat_cvt+0x7a>
   140003a2f:	b8 04 00 00 00       	mov    eax,0x4
   140003a34:	89 45 f8             	mov    DWORD PTR [rbp-0x8],eax
   140003a37:	eb 4a                	jmp    140003a83 <__pformat_cvt+0xc9>
   140003a39:	8b 45 f8             	mov    eax,DWORD PTR [rbp-0x8]
   140003a3c:	25 00 04 00 00       	and    eax,0x400
   140003a41:	85 c0                	test   eax,eax
   140003a43:	74 37                	je     140003a7c <__pformat_cvt+0xc2>
   140003a45:	8b 45 f8             	mov    eax,DWORD PTR [rbp-0x8]
   140003a48:	25 00 40 00 00       	and    eax,0x4000
   140003a4d:	85 c0                	test   eax,eax
   140003a4f:	74 10                	je     140003a61 <__pformat_cvt+0xa7>
   140003a51:	c7 45 f8 02 00 00 00 	mov    DWORD PTR [rbp-0x8],0x2
   140003a58:	c7 45 fc c3 bf ff ff 	mov    DWORD PTR [rbp-0x4],0xffffbfc3
   140003a5f:	eb 22                	jmp    140003a83 <__pformat_cvt+0xc9>
   140003a61:	c7 45 f8 01 00 00 00 	mov    DWORD PTR [rbp-0x8],0x1
   140003a68:	0f b7 45 e8          	movzx  eax,WORD PTR [rbp-0x18]
   140003a6c:	98                   	cwde
   140003a6d:	25 ff 7f 00 00       	and    eax,0x7fff
   140003a72:	2d 3e 40 00 00       	sub    eax,0x403e
   140003a77:	89 45 fc             	mov    DWORD PTR [rbp-0x4],eax
   140003a7a:	eb 07                	jmp    140003a83 <__pformat_cvt+0xc9>
   140003a7c:	c7 45 f8 00 00 00 00 	mov    DWORD PTR [rbp-0x8],0x0
   140003a83:	8b 45 f8             	mov    eax,DWORD PTR [rbp-0x8]
   140003a86:	83 f8 04             	cmp    eax,0x4
   140003a89:	74 0e                	je     140003a99 <__pformat_cvt+0xdf>
   140003a8b:	0f b7 45 e8          	movzx  eax,WORD PTR [rbp-0x18]
   140003a8f:	98                   	cwde
   140003a90:	25 00 80 00 00       	and    eax,0x8000
   140003a95:	89 c2                	mov    edx,eax
   140003a97:	eb 05                	jmp    140003a9e <__pformat_cvt+0xe4>
   140003a99:	ba 00 00 00 00       	mov    edx,0x0
   140003a9e:	48 8b 45 40          	mov    rax,QWORD PTR [rbp+0x40]
   140003aa2:	89 10                	mov    DWORD PTR [rax],edx
   140003aa4:	8b 45 fc             	mov    eax,DWORD PTR [rbp-0x4]
   140003aa7:	4c 8d 4d f8          	lea    r9,[rbp-0x8]
   140003aab:	4c 8d 45 e0          	lea    r8,[rbp-0x20]
   140003aaf:	48 8d 0d ba 65 00 00 	lea    rcx,[rip+0x65ba]        # 14000a070 <fpi.0>
   140003ab6:	48 8d 55 f0          	lea    rdx,[rbp-0x10]
   140003aba:	48 89 54 24 38       	mov    QWORD PTR [rsp+0x38],rdx
   140003abf:	48 8b 55 38          	mov    rdx,QWORD PTR [rbp+0x38]
   140003ac3:	48 89 54 24 30       	mov    QWORD PTR [rsp+0x30],rdx
   140003ac8:	8b 55 30             	mov    edx,DWORD PTR [rbp+0x30]
   140003acb:	89 54 24 28          	mov    DWORD PTR [rsp+0x28],edx
   140003acf:	8b 55 20             	mov    edx,DWORD PTR [rbp+0x20]
   140003ad2:	89 54 24 20          	mov    DWORD PTR [rsp+0x20],edx
   140003ad6:	89 c2                	mov    edx,eax
   140003ad8:	e8 4d 24 00 00       	call   140005f2a <__gdtoa>
   140003add:	48 81 c4 88 00 00 00 	add    rsp,0x88
   140003ae4:	5b                   	pop    rbx
   140003ae5:	5d                   	pop    rbp
   140003ae6:	c3                   	ret

0000000140003ae7 <__pformat_ecvt>:
   140003ae7:	55                   	push   rbp
   140003ae8:	53                   	push   rbx
   140003ae9:	48 83 ec 58          	sub    rsp,0x58
   140003aed:	48 8d 6c 24 50       	lea    rbp,[rsp+0x50]
   140003af2:	48 89 cb             	mov    rbx,rcx
   140003af5:	db 2b                	fld    TBYTE PTR [rbx]
   140003af7:	db 7d f0             	fstp   TBYTE PTR [rbp-0x10]
   140003afa:	89 55 28             	mov    DWORD PTR [rbp+0x28],edx
   140003afd:	4c 89 45 30          	mov    QWORD PTR [rbp+0x30],r8
   140003b01:	4c 89 4d 38          	mov    QWORD PTR [rbp+0x38],r9
   140003b05:	db 6d f0             	fld    TBYTE PTR [rbp-0x10]
   140003b08:	db 7d e0             	fstp   TBYTE PTR [rbp-0x20]
   140003b0b:	4c 8b 45 30          	mov    r8,QWORD PTR [rbp+0x30]
   140003b0f:	8b 4d 28             	mov    ecx,DWORD PTR [rbp+0x28]
   140003b12:	48 8d 45 e0          	lea    rax,[rbp-0x20]
   140003b16:	48 8b 55 38          	mov    rdx,QWORD PTR [rbp+0x38]
   140003b1a:	48 89 54 24 20       	mov    QWORD PTR [rsp+0x20],rdx
   140003b1f:	4d 89 c1             	mov    r9,r8
   140003b22:	41 89 c8             	mov    r8d,ecx
   140003b25:	48 89 c2             	mov    rdx,rax
   140003b28:	b9 02 00 00 00       	mov    ecx,0x2
   140003b2d:	e8 88 fe ff ff       	call   1400039ba <__pformat_cvt>
   140003b32:	48 83 c4 58          	add    rsp,0x58
   140003b36:	5b                   	pop    rbx
   140003b37:	5d                   	pop    rbp
   140003b38:	c3                   	ret

0000000140003b39 <__pformat_fcvt>:
   140003b39:	55                   	push   rbp
   140003b3a:	53                   	push   rbx
   140003b3b:	48 83 ec 58          	sub    rsp,0x58
   140003b3f:	48 8d 6c 24 50       	lea    rbp,[rsp+0x50]
   140003b44:	48 89 cb             	mov    rbx,rcx
   140003b47:	db 2b                	fld    TBYTE PTR [rbx]
   140003b49:	db 7d f0             	fstp   TBYTE PTR [rbp-0x10]
   140003b4c:	89 55 28             	mov    DWORD PTR [rbp+0x28],edx
   140003b4f:	4c 89 45 30          	mov    QWORD PTR [rbp+0x30],r8
   140003b53:	4c 89 4d 38          	mov    QWORD PTR [rbp+0x38],r9
   140003b57:	db 6d f0             	fld    TBYTE PTR [rbp-0x10]
   140003b5a:	db 7d e0             	fstp   TBYTE PTR [rbp-0x20]
   140003b5d:	4c 8b 45 30          	mov    r8,QWORD PTR [rbp+0x30]
   140003b61:	8b 4d 28             	mov    ecx,DWORD PTR [rbp+0x28]
   140003b64:	48 8d 45 e0          	lea    rax,[rbp-0x20]
   140003b68:	48 8b 55 38          	mov    rdx,QWORD PTR [rbp+0x38]
   140003b6c:	48 89 54 24 20       	mov    QWORD PTR [rsp+0x20],rdx
   140003b71:	4d 89 c1             	mov    r9,r8
   140003b74:	41 89 c8             	mov    r8d,ecx
   140003b77:	48 89 c2             	mov    rdx,rax
   140003b7a:	b9 03 00 00 00       	mov    ecx,0x3
   140003b7f:	e8 36 fe ff ff       	call   1400039ba <__pformat_cvt>
   140003b84:	48 83 c4 58          	add    rsp,0x58
   140003b88:	5b                   	pop    rbx
   140003b89:	5d                   	pop    rbp
   140003b8a:	c3                   	ret

0000000140003b8b <__pformat_emit_radix_point>:
   140003b8b:	55                   	push   rbp
   140003b8c:	53                   	push   rbx
   140003b8d:	48 83 ec 68          	sub    rsp,0x68
   140003b91:	48 8d 6c 24 60       	lea    rbp,[rsp+0x60]
   140003b96:	48 89 4d 20          	mov    QWORD PTR [rbp+0x20],rcx
   140003b9a:	48 8b 45 20          	mov    rax,QWORD PTR [rbp+0x20]
   140003b9e:	8b 40 14             	mov    eax,DWORD PTR [rax+0x14]
   140003ba1:	83 f8 fd             	cmp    eax,0xfffffffd
   140003ba4:	75 48                	jne    140003bee <__pformat_emit_radix_point+0x63>
   140003ba6:	48 c7 45 cc 00 00 00 	mov    QWORD PTR [rbp-0x34],0x0
   140003bad:	00 
   140003bae:	e8 3d 58 00 00       	call   1400093f0 <localeconv>
   140003bb3:	48 8b 10             	mov    rdx,QWORD PTR [rax]
   140003bb6:	48 8d 4d cc          	lea    rcx,[rbp-0x34]
   140003bba:	48 8d 45 d6          	lea    rax,[rbp-0x2a]
   140003bbe:	49 89 c9             	mov    r9,rcx
   140003bc1:	41 b8 10 00 00 00    	mov    r8d,0x10
   140003bc7:	48 89 c1             	mov    rcx,rax
   140003bca:	e8 ef 52 00 00       	call   140008ebe <mbrtowc>
   140003bcf:	89 45 ec             	mov    DWORD PTR [rbp-0x14],eax
   140003bd2:	83 7d ec 00          	cmp    DWORD PTR [rbp-0x14],0x0
   140003bd6:	7e 0c                	jle    140003be4 <__pformat_emit_radix_point+0x59>
   140003bd8:	0f b7 55 d6          	movzx  edx,WORD PTR [rbp-0x2a]
   140003bdc:	48 8b 45 20          	mov    rax,QWORD PTR [rbp+0x20]
   140003be0:	66 89 50 18          	mov    WORD PTR [rax+0x18],dx
   140003be4:	48 8b 45 20          	mov    rax,QWORD PTR [rbp+0x20]
   140003be8:	8b 55 ec             	mov    edx,DWORD PTR [rbp-0x14]
   140003beb:	89 50 14             	mov    DWORD PTR [rax+0x14],edx
   140003bee:	48 8b 45 20          	mov    rax,QWORD PTR [rbp+0x20]
   140003bf2:	0f b7 40 18          	movzx  eax,WORD PTR [rax+0x18]
   140003bf6:	66 85 c0             	test   ax,ax
   140003bf9:	0f 84 b8 00 00 00    	je     140003cb7 <__pformat_emit_radix_point+0x12c>
   140003bff:	48 89 e0             	mov    rax,rsp
   140003c02:	48 89 c3             	mov    rbx,rax
   140003c05:	48 8b 45 20          	mov    rax,QWORD PTR [rbp+0x20]
   140003c09:	8b 40 14             	mov    eax,DWORD PTR [rax+0x14]
   140003c0c:	89 45 fc             	mov    DWORD PTR [rbp-0x4],eax
   140003c0f:	8b 45 fc             	mov    eax,DWORD PTR [rbp-0x4]
   140003c12:	48 63 d0             	movsxd rdx,eax
   140003c15:	48 83 ea 01          	sub    rdx,0x1
   140003c19:	48 89 55 e0          	mov    QWORD PTR [rbp-0x20],rdx
   140003c1d:	48 98                	cdqe
   140003c1f:	48 83 c0 0f          	add    rax,0xf
   140003c23:	48 c1 e8 04          	shr    rax,0x4
   140003c27:	48 c1 e0 04          	shl    rax,0x4
   140003c2b:	e8 70 f1 ff ff       	call   140002da0 <___chkstk_ms>
   140003c30:	48 29 c4             	sub    rsp,rax
   140003c33:	48 8d 44 24 20       	lea    rax,[rsp+0x20]
   140003c38:	48 89 45 d8          	mov    QWORD PTR [rbp-0x28],rax
   140003c3c:	48 c7 45 c4 00 00 00 	mov    QWORD PTR [rbp-0x3c],0x0
   140003c43:	00 
   140003c44:	48 8b 45 20          	mov    rax,QWORD PTR [rbp+0x20]
   140003c48:	0f b7 40 18          	movzx  eax,WORD PTR [rax+0x18]
   140003c4c:	0f b7 d0             	movzx  edx,ax
   140003c4f:	48 8d 4d c4          	lea    rcx,[rbp-0x3c]
   140003c53:	48 8b 45 d8          	mov    rax,QWORD PTR [rbp-0x28]
   140003c57:	49 89 c8             	mov    r8,rcx
   140003c5a:	48 89 c1             	mov    rcx,rax
   140003c5d:	e8 6e 4e 00 00       	call   140008ad0 <wcrtomb>
   140003c62:	89 45 fc             	mov    DWORD PTR [rbp-0x4],eax
   140003c65:	83 7d fc 00          	cmp    DWORD PTR [rbp-0x4],0x0
   140003c69:	7e 36                	jle    140003ca1 <__pformat_emit_radix_point+0x116>
   140003c6b:	48 8b 45 d8          	mov    rax,QWORD PTR [rbp-0x28]
   140003c6f:	48 89 45 f0          	mov    QWORD PTR [rbp-0x10],rax
   140003c73:	eb 1d                	jmp    140003c92 <__pformat_emit_radix_point+0x107>
   140003c75:	48 8b 45 f0          	mov    rax,QWORD PTR [rbp-0x10]
   140003c79:	48 8d 50 01          	lea    rdx,[rax+0x1]
   140003c7d:	48 89 55 f0          	mov    QWORD PTR [rbp-0x10],rdx
   140003c81:	0f b6 00             	movzx  eax,BYTE PTR [rax]
   140003c84:	0f be c0             	movsx  eax,al
   140003c87:	48 8b 55 20          	mov    rdx,QWORD PTR [rbp+0x20]
   140003c8b:	89 c1                	mov    ecx,eax
   140003c8d:	e8 ce f1 ff ff       	call   140002e60 <__pformat_putc>
   140003c92:	8b 45 fc             	mov    eax,DWORD PTR [rbp-0x4]
   140003c95:	8d 50 ff             	lea    edx,[rax-0x1]
   140003c98:	89 55 fc             	mov    DWORD PTR [rbp-0x4],edx
   140003c9b:	85 c0                	test   eax,eax
   140003c9d:	7f d6                	jg     140003c75 <__pformat_emit_radix_point+0xea>
   140003c9f:	eb 11                	jmp    140003cb2 <__pformat_emit_radix_point+0x127>
   140003ca1:	48 8b 45 20          	mov    rax,QWORD PTR [rbp+0x20]
   140003ca5:	48 89 c2             	mov    rdx,rax
   140003ca8:	b9 2e 00 00 00       	mov    ecx,0x2e
   140003cad:	e8 ae f1 ff ff       	call   140002e60 <__pformat_putc>
   140003cb2:	48 89 dc             	mov    rsp,rbx
   140003cb5:	eb 11                	jmp    140003cc8 <__pformat_emit_radix_point+0x13d>
   140003cb7:	48 8b 45 20          	mov    rax,QWORD PTR [rbp+0x20]
   140003cbb:	48 89 c2             	mov    rdx,rax
   140003cbe:	b9 2e 00 00 00       	mov    ecx,0x2e
   140003cc3:	e8 98 f1 ff ff       	call   140002e60 <__pformat_putc>
   140003cc8:	90                   	nop
   140003cc9:	48 8d 65 08          	lea    rsp,[rbp+0x8]
   140003ccd:	5b                   	pop    rbx
   140003cce:	5d                   	pop    rbp
   140003ccf:	c3                   	ret

0000000140003cd0 <__pformat_emit_numeric_value>:
   140003cd0:	55                   	push   rbp
   140003cd1:	48 89 e5             	mov    rbp,rsp
   140003cd4:	48 83 ec 30          	sub    rsp,0x30
   140003cd8:	89 4d 10             	mov    DWORD PTR [rbp+0x10],ecx
   140003cdb:	48 89 55 18          	mov    QWORD PTR [rbp+0x18],rdx
   140003cdf:	83 7d 10 2e          	cmp    DWORD PTR [rbp+0x10],0x2e
   140003ce3:	75 0e                	jne    140003cf3 <__pformat_emit_numeric_value+0x23>
   140003ce5:	48 8b 45 18          	mov    rax,QWORD PTR [rbp+0x18]
   140003ce9:	48 89 c1             	mov    rcx,rax
   140003cec:	e8 9a fe ff ff       	call   140003b8b <__pformat_emit_radix_point>
   140003cf1:	eb 43                	jmp    140003d36 <__pformat_emit_numeric_value+0x66>
   140003cf3:	83 7d 10 2c          	cmp    DWORD PTR [rbp+0x10],0x2c
   140003cf7:	75 2f                	jne    140003d28 <__pformat_emit_numeric_value+0x58>
   140003cf9:	48 8b 45 18          	mov    rax,QWORD PTR [rbp+0x18]
   140003cfd:	0f b7 40 20          	movzx  eax,WORD PTR [rax+0x20]
   140003d01:	66 89 45 fe          	mov    WORD PTR [rbp-0x2],ax
   140003d05:	0f b7 45 fe          	movzx  eax,WORD PTR [rbp-0x2]
   140003d09:	66 85 c0             	test   ax,ax
   140003d0c:	74 28                	je     140003d36 <__pformat_emit_numeric_value+0x66>
   140003d0e:	48 8b 55 18          	mov    rdx,QWORD PTR [rbp+0x18]
   140003d12:	48 8d 45 fe          	lea    rax,[rbp-0x2]
   140003d16:	49 89 d0             	mov    r8,rdx
   140003d19:	ba 01 00 00 00       	mov    edx,0x1
   140003d1e:	48 89 c1             	mov    rcx,rax
   140003d21:	e8 43 f3 ff ff       	call   140003069 <__pformat_wputchars>
   140003d26:	eb 0e                	jmp    140003d36 <__pformat_emit_numeric_value+0x66>
   140003d28:	48 8b 55 18          	mov    rdx,QWORD PTR [rbp+0x18]
   140003d2c:	8b 45 10             	mov    eax,DWORD PTR [rbp+0x10]
   140003d2f:	89 c1                	mov    ecx,eax
   140003d31:	e8 2a f1 ff ff       	call   140002e60 <__pformat_putc>
   140003d36:	90                   	nop
   140003d37:	48 83 c4 30          	add    rsp,0x30
   140003d3b:	5d                   	pop    rbp
   140003d3c:	c3                   	ret

0000000140003d3d <__pformat_emit_inf_or_nan>:
   140003d3d:	55                   	push   rbp
   140003d3e:	48 89 e5             	mov    rbp,rsp
   140003d41:	48 83 ec 40          	sub    rsp,0x40
   140003d45:	89 4d 10             	mov    DWORD PTR [rbp+0x10],ecx
   140003d48:	48 89 55 18          	mov    QWORD PTR [rbp+0x18],rdx
   140003d4c:	4c 89 45 20          	mov    QWORD PTR [rbp+0x20],r8
   140003d50:	48 8d 45 ec          	lea    rax,[rbp-0x14]
   140003d54:	48 89 45 f0          	mov    QWORD PTR [rbp-0x10],rax
   140003d58:	48 8b 45 20          	mov    rax,QWORD PTR [rbp+0x20]
   140003d5c:	c7 40 10 ff ff ff ff 	mov    DWORD PTR [rax+0x10],0xffffffff
   140003d63:	83 7d 10 00          	cmp    DWORD PTR [rbp+0x10],0x0
   140003d67:	74 11                	je     140003d7a <__pformat_emit_inf_or_nan+0x3d>
   140003d69:	48 8b 45 f0          	mov    rax,QWORD PTR [rbp-0x10]
   140003d6d:	48 8d 50 01          	lea    rdx,[rax+0x1]
   140003d71:	48 89 55 f0          	mov    QWORD PTR [rbp-0x10],rdx
   140003d75:	c6 00 2d             	mov    BYTE PTR [rax],0x2d
   140003d78:	eb 3e                	jmp    140003db8 <__pformat_emit_inf_or_nan+0x7b>
   140003d7a:	48 8b 45 20          	mov    rax,QWORD PTR [rbp+0x20]
   140003d7e:	8b 40 08             	mov    eax,DWORD PTR [rax+0x8]
   140003d81:	25 00 01 00 00       	and    eax,0x100
   140003d86:	85 c0                	test   eax,eax
   140003d88:	74 11                	je     140003d9b <__pformat_emit_inf_or_nan+0x5e>
   140003d8a:	48 8b 45 f0          	mov    rax,QWORD PTR [rbp-0x10]
   140003d8e:	48 8d 50 01          	lea    rdx,[rax+0x1]
   140003d92:	48 89 55 f0          	mov    QWORD PTR [rbp-0x10],rdx
   140003d96:	c6 00 2b             	mov    BYTE PTR [rax],0x2b
   140003d99:	eb 1d                	jmp    140003db8 <__pformat_emit_inf_or_nan+0x7b>
   140003d9b:	48 8b 45 20          	mov    rax,QWORD PTR [rbp+0x20]
   140003d9f:	8b 40 08             	mov    eax,DWORD PTR [rax+0x8]
   140003da2:	83 e0 40             	and    eax,0x40
   140003da5:	85 c0                	test   eax,eax
   140003da7:	74 0f                	je     140003db8 <__pformat_emit_inf_or_nan+0x7b>
   140003da9:	48 8b 45 f0          	mov    rax,QWORD PTR [rbp-0x10]
   140003dad:	48 8d 50 01          	lea    rdx,[rax+0x1]
   140003db1:	48 89 55 f0          	mov    QWORD PTR [rbp-0x10],rdx
   140003db5:	c6 00 20             	mov    BYTE PTR [rax],0x20
   140003db8:	c7 45 fc 03 00 00 00 	mov    DWORD PTR [rbp-0x4],0x3
   140003dbf:	eb 38                	jmp    140003df9 <__pformat_emit_inf_or_nan+0xbc>
   140003dc1:	48 8b 45 18          	mov    rax,QWORD PTR [rbp+0x18]
   140003dc5:	48 8d 50 01          	lea    rdx,[rax+0x1]
   140003dc9:	48 89 55 18          	mov    QWORD PTR [rbp+0x18],rdx
   140003dcd:	0f b6 00             	movzx  eax,BYTE PTR [rax]
   140003dd0:	83 e0 df             	and    eax,0xffffffdf
   140003dd3:	41 89 c0             	mov    r8d,eax
   140003dd6:	48 8b 45 20          	mov    rax,QWORD PTR [rbp+0x20]
   140003dda:	8b 40 08             	mov    eax,DWORD PTR [rax+0x8]
   140003ddd:	83 e0 20             	and    eax,0x20
   140003de0:	89 c1                	mov    ecx,eax
   140003de2:	48 8b 45 f0          	mov    rax,QWORD PTR [rbp-0x10]
   140003de6:	48 8d 50 01          	lea    rdx,[rax+0x1]
   140003dea:	48 89 55 f0          	mov    QWORD PTR [rbp-0x10],rdx
   140003dee:	44 89 c2             	mov    edx,r8d
   140003df1:	09 ca                	or     edx,ecx
   140003df3:	88 10                	mov    BYTE PTR [rax],dl
   140003df5:	83 6d fc 01          	sub    DWORD PTR [rbp-0x4],0x1
   140003df9:	83 7d fc 00          	cmp    DWORD PTR [rbp-0x4],0x0
   140003dfd:	7f c2                	jg     140003dc1 <__pformat_emit_inf_or_nan+0x84>
   140003dff:	48 8d 45 ec          	lea    rax,[rbp-0x14]
   140003e03:	48 8b 55 f0          	mov    rdx,QWORD PTR [rbp-0x10]
   140003e07:	48 29 c2             	sub    rdx,rax
   140003e0a:	89 d1                	mov    ecx,edx
   140003e0c:	48 8b 55 20          	mov    rdx,QWORD PTR [rbp+0x20]
   140003e10:	48 8d 45 ec          	lea    rax,[rbp-0x14]
   140003e14:	49 89 d0             	mov    r8,rdx
   140003e17:	89 ca                	mov    edx,ecx
   140003e19:	48 89 c1             	mov    rcx,rax
   140003e1c:	e8 c3 f0 ff ff       	call   140002ee4 <__pformat_putchars>
   140003e21:	90                   	nop
   140003e22:	48 83 c4 40          	add    rsp,0x40
   140003e26:	5d                   	pop    rbp
   140003e27:	c3                   	ret

0000000140003e28 <__pformat_emit_float>:
   140003e28:	55                   	push   rbp
   140003e29:	48 89 e5             	mov    rbp,rsp
   140003e2c:	48 83 ec 30          	sub    rsp,0x30
   140003e30:	89 4d 10             	mov    DWORD PTR [rbp+0x10],ecx
   140003e33:	48 89 55 18          	mov    QWORD PTR [rbp+0x18],rdx
   140003e37:	44 89 45 20          	mov    DWORD PTR [rbp+0x20],r8d
   140003e3b:	4c 89 4d 28          	mov    QWORD PTR [rbp+0x28],r9
   140003e3f:	83 7d 20 00          	cmp    DWORD PTR [rbp+0x20],0x0
   140003e43:	7e 2e                	jle    140003e73 <__pformat_emit_float+0x4b>
   140003e45:	48 8b 45 28          	mov    rax,QWORD PTR [rbp+0x28]
   140003e49:	8b 40 0c             	mov    eax,DWORD PTR [rax+0xc]
   140003e4c:	39 45 20             	cmp    DWORD PTR [rbp+0x20],eax
   140003e4f:	7f 15                	jg     140003e66 <__pformat_emit_float+0x3e>
   140003e51:	48 8b 45 28          	mov    rax,QWORD PTR [rbp+0x28]
   140003e55:	8b 40 0c             	mov    eax,DWORD PTR [rax+0xc]
   140003e58:	2b 45 20             	sub    eax,DWORD PTR [rbp+0x20]
   140003e5b:	89 c2                	mov    edx,eax
   140003e5d:	48 8b 45 28          	mov    rax,QWORD PTR [rbp+0x28]
   140003e61:	89 50 0c             	mov    DWORD PTR [rax+0xc],edx
   140003e64:	eb 29                	jmp    140003e8f <__pformat_emit_float+0x67>
   140003e66:	48 8b 45 28          	mov    rax,QWORD PTR [rbp+0x28]
   140003e6a:	c7 40 0c ff ff ff ff 	mov    DWORD PTR [rax+0xc],0xffffffff
   140003e71:	eb 1c                	jmp    140003e8f <__pformat_emit_float+0x67>
   140003e73:	48 8b 45 28          	mov    rax,QWORD PTR [rbp+0x28]
   140003e77:	8b 40 0c             	mov    eax,DWORD PTR [rax+0xc]
   140003e7a:	85 c0                	test   eax,eax
   140003e7c:	7e 11                	jle    140003e8f <__pformat_emit_float+0x67>
   140003e7e:	48 8b 45 28          	mov    rax,QWORD PTR [rbp+0x28]
   140003e82:	8b 40 0c             	mov    eax,DWORD PTR [rax+0xc]
   140003e85:	8d 50 ff             	lea    edx,[rax-0x1]
   140003e88:	48 8b 45 28          	mov    rax,QWORD PTR [rbp+0x28]
   140003e8c:	89 50 0c             	mov    DWORD PTR [rax+0xc],edx
   140003e8f:	48 8b 45 28          	mov    rax,QWORD PTR [rbp+0x28]
   140003e93:	8b 40 0c             	mov    eax,DWORD PTR [rax+0xc]
   140003e96:	85 c0                	test   eax,eax
   140003e98:	78 2b                	js     140003ec5 <__pformat_emit_float+0x9d>
   140003e9a:	48 8b 45 28          	mov    rax,QWORD PTR [rbp+0x28]
   140003e9e:	8b 50 0c             	mov    edx,DWORD PTR [rax+0xc]
   140003ea1:	48 8b 45 28          	mov    rax,QWORD PTR [rbp+0x28]
   140003ea5:	8b 40 10             	mov    eax,DWORD PTR [rax+0x10]
   140003ea8:	39 c2                	cmp    edx,eax
   140003eaa:	7e 19                	jle    140003ec5 <__pformat_emit_float+0x9d>
   140003eac:	48 8b 45 28          	mov    rax,QWORD PTR [rbp+0x28]
   140003eb0:	8b 50 0c             	mov    edx,DWORD PTR [rax+0xc]
   140003eb3:	48 8b 45 28          	mov    rax,QWORD PTR [rbp+0x28]
   140003eb7:	8b 40 10             	mov    eax,DWORD PTR [rax+0x10]
   140003eba:	29 c2                	sub    edx,eax
   140003ebc:	48 8b 45 28          	mov    rax,QWORD PTR [rbp+0x28]
   140003ec0:	89 50 0c             	mov    DWORD PTR [rax+0xc],edx
   140003ec3:	eb 0b                	jmp    140003ed0 <__pformat_emit_float+0xa8>
   140003ec5:	48 8b 45 28          	mov    rax,QWORD PTR [rbp+0x28]
   140003ec9:	c7 40 0c ff ff ff ff 	mov    DWORD PTR [rax+0xc],0xffffffff
   140003ed0:	48 8b 45 28          	mov    rax,QWORD PTR [rbp+0x28]
   140003ed4:	8b 40 0c             	mov    eax,DWORD PTR [rax+0xc]
   140003ed7:	85 c0                	test   eax,eax
   140003ed9:	7e 2c                	jle    140003f07 <__pformat_emit_float+0xdf>
   140003edb:	48 8b 45 28          	mov    rax,QWORD PTR [rbp+0x28]
   140003edf:	8b 40 10             	mov    eax,DWORD PTR [rax+0x10]
   140003ee2:	85 c0                	test   eax,eax
   140003ee4:	7f 10                	jg     140003ef6 <__pformat_emit_float+0xce>
   140003ee6:	48 8b 45 28          	mov    rax,QWORD PTR [rbp+0x28]
   140003eea:	8b 40 08             	mov    eax,DWORD PTR [rax+0x8]
   140003eed:	25 00 08 00 00       	and    eax,0x800
   140003ef2:	85 c0                	test   eax,eax
   140003ef4:	74 11                	je     140003f07 <__pformat_emit_float+0xdf>
   140003ef6:	48 8b 45 28          	mov    rax,QWORD PTR [rbp+0x28]
   140003efa:	8b 40 0c             	mov    eax,DWORD PTR [rax+0xc]
   140003efd:	8d 50 ff             	lea    edx,[rax-0x1]
   140003f00:	48 8b 45 28          	mov    rax,QWORD PTR [rbp+0x28]
   140003f04:	89 50 0c             	mov    DWORD PTR [rax+0xc],edx
   140003f07:	83 7d 20 00          	cmp    DWORD PTR [rbp+0x20],0x0
   140003f0b:	7e 64                	jle    140003f71 <__pformat_emit_float+0x149>
   140003f0d:	48 8b 45 28          	mov    rax,QWORD PTR [rbp+0x28]
   140003f11:	8b 40 08             	mov    eax,DWORD PTR [rax+0x8]
   140003f14:	25 00 10 00 00       	and    eax,0x1000
   140003f19:	85 c0                	test   eax,eax
   140003f1b:	74 54                	je     140003f71 <__pformat_emit_float+0x149>
   140003f1d:	48 8b 45 28          	mov    rax,QWORD PTR [rbp+0x28]
   140003f21:	0f b7 40 20          	movzx  eax,WORD PTR [rax+0x20]
   140003f25:	66 85 c0             	test   ax,ax
   140003f28:	74 47                	je     140003f71 <__pformat_emit_float+0x149>
   140003f2a:	8b 45 20             	mov    eax,DWORD PTR [rbp+0x20]
   140003f2d:	83 c0 02             	add    eax,0x2
   140003f30:	48 63 d0             	movsxd rdx,eax
   140003f33:	48 69 d2 56 55 55 55 	imul   rdx,rdx,0x55555556
   140003f3a:	48 c1 ea 20          	shr    rdx,0x20
   140003f3e:	c1 f8 1f             	sar    eax,0x1f
   140003f41:	29 c2                	sub    edx,eax
   140003f43:	8d 42 ff             	lea    eax,[rdx-0x1]
   140003f46:	89 45 fc             	mov    DWORD PTR [rbp-0x4],eax
   140003f49:	eb 15                	jmp    140003f60 <__pformat_emit_float+0x138>
   140003f4b:	83 6d fc 01          	sub    DWORD PTR [rbp-0x4],0x1
   140003f4f:	48 8b 45 28          	mov    rax,QWORD PTR [rbp+0x28]
   140003f53:	8b 40 0c             	mov    eax,DWORD PTR [rax+0xc]
   140003f56:	8d 50 ff             	lea    edx,[rax-0x1]
   140003f59:	48 8b 45 28          	mov    rax,QWORD PTR [rbp+0x28]
   140003f5d:	89 50 0c             	mov    DWORD PTR [rax+0xc],edx
   140003f60:	83 7d fc 00          	cmp    DWORD PTR [rbp-0x4],0x0
   140003f64:	7e 0b                	jle    140003f71 <__pformat_emit_float+0x149>
   140003f66:	48 8b 45 28          	mov    rax,QWORD PTR [rbp+0x28]
   140003f6a:	8b 40 0c             	mov    eax,DWORD PTR [rax+0xc]
   140003f6d:	85 c0                	test   eax,eax
   140003f6f:	7f da                	jg     140003f4b <__pformat_emit_float+0x123>
   140003f71:	48 8b 45 28          	mov    rax,QWORD PTR [rbp+0x28]
   140003f75:	8b 40 0c             	mov    eax,DWORD PTR [rax+0xc]
   140003f78:	85 c0                	test   eax,eax
   140003f7a:	7e 27                	jle    140003fa3 <__pformat_emit_float+0x17b>
   140003f7c:	83 7d 10 00          	cmp    DWORD PTR [rbp+0x10],0x0
   140003f80:	75 10                	jne    140003f92 <__pformat_emit_float+0x16a>
   140003f82:	48 8b 45 28          	mov    rax,QWORD PTR [rbp+0x28]
   140003f86:	8b 40 08             	mov    eax,DWORD PTR [rax+0x8]
   140003f89:	25 c0 01 00 00       	and    eax,0x1c0
   140003f8e:	85 c0                	test   eax,eax
   140003f90:	74 11                	je     140003fa3 <__pformat_emit_float+0x17b>
   140003f92:	48 8b 45 28          	mov    rax,QWORD PTR [rbp+0x28]
   140003f96:	8b 40 0c             	mov    eax,DWORD PTR [rax+0xc]
   140003f99:	8d 50 ff             	lea    edx,[rax-0x1]
   140003f9c:	48 8b 45 28          	mov    rax,QWORD PTR [rbp+0x28]
   140003fa0:	89 50 0c             	mov    DWORD PTR [rax+0xc],edx
   140003fa3:	48 8b 45 28          	mov    rax,QWORD PTR [rbp+0x28]
   140003fa7:	8b 40 0c             	mov    eax,DWORD PTR [rax+0xc]
   140003faa:	85 c0                	test   eax,eax
   140003fac:	7e 38                	jle    140003fe6 <__pformat_emit_float+0x1be>
   140003fae:	48 8b 45 28          	mov    rax,QWORD PTR [rbp+0x28]
   140003fb2:	8b 40 08             	mov    eax,DWORD PTR [rax+0x8]
   140003fb5:	25 00 06 00 00       	and    eax,0x600
   140003fba:	85 c0                	test   eax,eax
   140003fbc:	75 28                	jne    140003fe6 <__pformat_emit_float+0x1be>
   140003fbe:	eb 11                	jmp    140003fd1 <__pformat_emit_float+0x1a9>
   140003fc0:	48 8b 45 28          	mov    rax,QWORD PTR [rbp+0x28]
   140003fc4:	48 89 c2             	mov    rdx,rax
   140003fc7:	b9 20 00 00 00       	mov    ecx,0x20
   140003fcc:	e8 8f ee ff ff       	call   140002e60 <__pformat_putc>
   140003fd1:	48 8b 45 28          	mov    rax,QWORD PTR [rbp+0x28]
   140003fd5:	8b 40 0c             	mov    eax,DWORD PTR [rax+0xc]
   140003fd8:	8d 48 ff             	lea    ecx,[rax-0x1]
   140003fdb:	48 8b 55 28          	mov    rdx,QWORD PTR [rbp+0x28]
   140003fdf:	89 4a 0c             	mov    DWORD PTR [rdx+0xc],ecx
   140003fe2:	85 c0                	test   eax,eax
   140003fe4:	7f da                	jg     140003fc0 <__pformat_emit_float+0x198>
   140003fe6:	83 7d 10 00          	cmp    DWORD PTR [rbp+0x10],0x0
   140003fea:	74 13                	je     140003fff <__pformat_emit_float+0x1d7>
   140003fec:	48 8b 45 28          	mov    rax,QWORD PTR [rbp+0x28]
   140003ff0:	48 89 c2             	mov    rdx,rax
   140003ff3:	b9 2d 00 00 00       	mov    ecx,0x2d
   140003ff8:	e8 63 ee ff ff       	call   140002e60 <__pformat_putc>
   140003ffd:	eb 42                	jmp    140004041 <__pformat_emit_float+0x219>
   140003fff:	48 8b 45 28          	mov    rax,QWORD PTR [rbp+0x28]
   140004003:	8b 40 08             	mov    eax,DWORD PTR [rax+0x8]
   140004006:	25 00 01 00 00       	and    eax,0x100
   14000400b:	85 c0                	test   eax,eax
   14000400d:	74 13                	je     140004022 <__pformat_emit_float+0x1fa>
   14000400f:	48 8b 45 28          	mov    rax,QWORD PTR [rbp+0x28]
   140004013:	48 89 c2             	mov    rdx,rax
   140004016:	b9 2b 00 00 00       	mov    ecx,0x2b
   14000401b:	e8 40 ee ff ff       	call   140002e60 <__pformat_putc>
   140004020:	eb 1f                	jmp    140004041 <__pformat_emit_float+0x219>
   140004022:	48 8b 45 28          	mov    rax,QWORD PTR [rbp+0x28]
   140004026:	8b 40 08             	mov    eax,DWORD PTR [rax+0x8]
   140004029:	83 e0 40             	and    eax,0x40
   14000402c:	85 c0                	test   eax,eax
   14000402e:	74 11                	je     140004041 <__pformat_emit_float+0x219>
   140004030:	48 8b 45 28          	mov    rax,QWORD PTR [rbp+0x28]
   140004034:	48 89 c2             	mov    rdx,rax
   140004037:	b9 20 00 00 00       	mov    ecx,0x20
   14000403c:	e8 1f ee ff ff       	call   140002e60 <__pformat_putc>
   140004041:	48 8b 45 28          	mov    rax,QWORD PTR [rbp+0x28]
   140004045:	8b 40 0c             	mov    eax,DWORD PTR [rax+0xc]
   140004048:	85 c0                	test   eax,eax
   14000404a:	7e 3b                	jle    140004087 <__pformat_emit_float+0x25f>
   14000404c:	48 8b 45 28          	mov    rax,QWORD PTR [rbp+0x28]
   140004050:	8b 40 08             	mov    eax,DWORD PTR [rax+0x8]
   140004053:	25 00 06 00 00       	and    eax,0x600
   140004058:	3d 00 02 00 00       	cmp    eax,0x200
   14000405d:	75 28                	jne    140004087 <__pformat_emit_float+0x25f>
   14000405f:	eb 11                	jmp    140004072 <__pformat_emit_float+0x24a>
   140004061:	48 8b 45 28          	mov    rax,QWORD PTR [rbp+0x28]
   140004065:	48 89 c2             	mov    rdx,rax
   140004068:	b9 30 00 00 00       	mov    ecx,0x30
   14000406d:	e8 ee ed ff ff       	call   140002e60 <__pformat_putc>
   140004072:	48 8b 45 28          	mov    rax,QWORD PTR [rbp+0x28]
   140004076:	8b 40 0c             	mov    eax,DWORD PTR [rax+0xc]
   140004079:	8d 48 ff             	lea    ecx,[rax-0x1]
   14000407c:	48 8b 55 28          	mov    rdx,QWORD PTR [rbp+0x28]
   140004080:	89 4a 0c             	mov    DWORD PTR [rdx+0xc],ecx
   140004083:	85 c0                	test   eax,eax
   140004085:	7f da                	jg     140004061 <__pformat_emit_float+0x239>
   140004087:	83 7d 20 00          	cmp    DWORD PTR [rbp+0x20],0x0
   14000408b:	0f 8e a7 00 00 00    	jle    140004138 <__pformat_emit_float+0x310>
   140004091:	48 8b 45 18          	mov    rax,QWORD PTR [rbp+0x18]
   140004095:	0f b6 00             	movzx  eax,BYTE PTR [rax]
   140004098:	84 c0                	test   al,al
   14000409a:	74 14                	je     1400040b0 <__pformat_emit_float+0x288>
   14000409c:	48 8b 45 18          	mov    rax,QWORD PTR [rbp+0x18]
   1400040a0:	48 8d 50 01          	lea    rdx,[rax+0x1]
   1400040a4:	48 89 55 18          	mov    QWORD PTR [rbp+0x18],rdx
   1400040a8:	0f b6 00             	movzx  eax,BYTE PTR [rax]
   1400040ab:	0f be c0             	movsx  eax,al
   1400040ae:	eb 05                	jmp    1400040b5 <__pformat_emit_float+0x28d>
   1400040b0:	b8 30 00 00 00       	mov    eax,0x30
   1400040b5:	48 8b 55 28          	mov    rdx,QWORD PTR [rbp+0x28]
   1400040b9:	89 c1                	mov    ecx,eax
   1400040bb:	e8 a0 ed ff ff       	call   140002e60 <__pformat_putc>
   1400040c0:	83 6d 20 01          	sub    DWORD PTR [rbp+0x20],0x1
   1400040c4:	83 7d 20 00          	cmp    DWORD PTR [rbp+0x20],0x0
   1400040c8:	74 62                	je     14000412c <__pformat_emit_float+0x304>
   1400040ca:	48 8b 45 28          	mov    rax,QWORD PTR [rbp+0x28]
   1400040ce:	8b 40 08             	mov    eax,DWORD PTR [rax+0x8]
   1400040d1:	25 00 10 00 00       	and    eax,0x1000
   1400040d6:	85 c0                	test   eax,eax
   1400040d8:	74 52                	je     14000412c <__pformat_emit_float+0x304>
   1400040da:	48 8b 45 28          	mov    rax,QWORD PTR [rbp+0x28]
   1400040de:	0f b7 40 20          	movzx  eax,WORD PTR [rax+0x20]
   1400040e2:	66 85 c0             	test   ax,ax
   1400040e5:	74 45                	je     14000412c <__pformat_emit_float+0x304>
   1400040e7:	8b 4d 20             	mov    ecx,DWORD PTR [rbp+0x20]
   1400040ea:	48 63 c1             	movsxd rax,ecx
   1400040ed:	48 69 c0 56 55 55 55 	imul   rax,rax,0x55555556
   1400040f4:	48 c1 e8 20          	shr    rax,0x20
   1400040f8:	48 89 c2             	mov    rdx,rax
   1400040fb:	89 c8                	mov    eax,ecx
   1400040fd:	c1 f8 1f             	sar    eax,0x1f
   140004100:	29 c2                	sub    edx,eax
   140004102:	89 d0                	mov    eax,edx
   140004104:	01 c0                	add    eax,eax
   140004106:	01 d0                	add    eax,edx
   140004108:	29 c1                	sub    ecx,eax
   14000410a:	89 ca                	mov    edx,ecx
   14000410c:	85 d2                	test   edx,edx
   14000410e:	75 1c                	jne    14000412c <__pformat_emit_float+0x304>
   140004110:	48 8b 45 28          	mov    rax,QWORD PTR [rbp+0x28]
   140004114:	48 83 c0 20          	add    rax,0x20
   140004118:	48 8b 55 28          	mov    rdx,QWORD PTR [rbp+0x28]
   14000411c:	49 89 d0             	mov    r8,rdx
   14000411f:	ba 01 00 00 00       	mov    edx,0x1
   140004124:	48 89 c1             	mov    rcx,rax
   140004127:	e8 3d ef ff ff       	call   140003069 <__pformat_wputchars>
   14000412c:	83 7d 20 00          	cmp    DWORD PTR [rbp+0x20],0x0
   140004130:	0f 8f 5b ff ff ff    	jg     140004091 <__pformat_emit_float+0x269>
   140004136:	eb 11                	jmp    140004149 <__pformat_emit_float+0x321>
   140004138:	48 8b 45 28          	mov    rax,QWORD PTR [rbp+0x28]
   14000413c:	48 89 c2             	mov    rdx,rax
   14000413f:	b9 30 00 00 00       	mov    ecx,0x30
   140004144:	e8 17 ed ff ff       	call   140002e60 <__pformat_putc>
   140004149:	48 8b 45 28          	mov    rax,QWORD PTR [rbp+0x28]
   14000414d:	8b 40 10             	mov    eax,DWORD PTR [rax+0x10]
   140004150:	85 c0                	test   eax,eax
   140004152:	7f 10                	jg     140004164 <__pformat_emit_float+0x33c>
   140004154:	48 8b 45 28          	mov    rax,QWORD PTR [rbp+0x28]
   140004158:	8b 40 08             	mov    eax,DWORD PTR [rax+0x8]
   14000415b:	25 00 08 00 00       	and    eax,0x800
   140004160:	85 c0                	test   eax,eax
   140004162:	74 0c                	je     140004170 <__pformat_emit_float+0x348>
   140004164:	48 8b 45 28          	mov    rax,QWORD PTR [rbp+0x28]
   140004168:	48 89 c1             	mov    rcx,rax
   14000416b:	e8 1b fa ff ff       	call   140003b8b <__pformat_emit_radix_point>
   140004170:	83 7d 20 00          	cmp    DWORD PTR [rbp+0x20],0x0
   140004174:	79 5f                	jns    1400041d5 <__pformat_emit_float+0x3ad>
   140004176:	48 8b 45 28          	mov    rax,QWORD PTR [rbp+0x28]
   14000417a:	8b 50 10             	mov    edx,DWORD PTR [rax+0x10]
   14000417d:	8b 45 20             	mov    eax,DWORD PTR [rbp+0x20]
   140004180:	01 c2                	add    edx,eax
   140004182:	48 8b 45 28          	mov    rax,QWORD PTR [rbp+0x28]
   140004186:	89 50 10             	mov    DWORD PTR [rax+0x10],edx
   140004189:	48 8b 45 28          	mov    rax,QWORD PTR [rbp+0x28]
   14000418d:	48 89 c2             	mov    rdx,rax
   140004190:	b9 30 00 00 00       	mov    ecx,0x30
   140004195:	e8 c6 ec ff ff       	call   140002e60 <__pformat_putc>
   14000419a:	83 45 20 01          	add    DWORD PTR [rbp+0x20],0x1
   14000419e:	83 7d 20 00          	cmp    DWORD PTR [rbp+0x20],0x0
   1400041a2:	78 e5                	js     140004189 <__pformat_emit_float+0x361>
   1400041a4:	eb 2f                	jmp    1400041d5 <__pformat_emit_float+0x3ad>
   1400041a6:	48 8b 45 18          	mov    rax,QWORD PTR [rbp+0x18]
   1400041aa:	0f b6 00             	movzx  eax,BYTE PTR [rax]
   1400041ad:	84 c0                	test   al,al
   1400041af:	74 14                	je     1400041c5 <__pformat_emit_float+0x39d>
   1400041b1:	48 8b 45 18          	mov    rax,QWORD PTR [rbp+0x18]
   1400041b5:	48 8d 50 01          	lea    rdx,[rax+0x1]
   1400041b9:	48 89 55 18          	mov    QWORD PTR [rbp+0x18],rdx
   1400041bd:	0f b6 00             	movzx  eax,BYTE PTR [rax]
   1400041c0:	0f be c0             	movsx  eax,al
   1400041c3:	eb 05                	jmp    1400041ca <__pformat_emit_float+0x3a2>
   1400041c5:	b8 30 00 00 00       	mov    eax,0x30
   1400041ca:	48 8b 55 28          	mov    rdx,QWORD PTR [rbp+0x28]
   1400041ce:	89 c1                	mov    ecx,eax
   1400041d0:	e8 8b ec ff ff       	call   140002e60 <__pformat_putc>
   1400041d5:	48 8b 45 28          	mov    rax,QWORD PTR [rbp+0x28]
   1400041d9:	8b 40 10             	mov    eax,DWORD PTR [rax+0x10]
   1400041dc:	8d 48 ff             	lea    ecx,[rax-0x1]
   1400041df:	48 8b 55 28          	mov    rdx,QWORD PTR [rbp+0x28]
   1400041e3:	89 4a 10             	mov    DWORD PTR [rdx+0x10],ecx
   1400041e6:	85 c0                	test   eax,eax
   1400041e8:	7f bc                	jg     1400041a6 <__pformat_emit_float+0x37e>
   1400041ea:	90                   	nop
   1400041eb:	90                   	nop
   1400041ec:	48 83 c4 30          	add    rsp,0x30
   1400041f0:	5d                   	pop    rbp
   1400041f1:	c3                   	ret

00000001400041f2 <__pformat_emit_efloat>:
   1400041f2:	55                   	push   rbp
   1400041f3:	48 89 e5             	mov    rbp,rsp
   1400041f6:	48 83 ec 50          	sub    rsp,0x50
   1400041fa:	89 4d 10             	mov    DWORD PTR [rbp+0x10],ecx
   1400041fd:	48 89 55 18          	mov    QWORD PTR [rbp+0x18],rdx
   140004201:	44 89 45 20          	mov    DWORD PTR [rbp+0x20],r8d
   140004205:	4c 89 4d 28          	mov    QWORD PTR [rbp+0x28],r9
   140004209:	c7 45 fc 01 00 00 00 	mov    DWORD PTR [rbp-0x4],0x1
   140004210:	83 6d 20 01          	sub    DWORD PTR [rbp+0x20],0x1
   140004214:	8b 45 20             	mov    eax,DWORD PTR [rbp+0x20]
   140004217:	48 98                	cdqe
   140004219:	48 89 45 e0          	mov    QWORD PTR [rbp-0x20],rax
   14000421d:	eb 04                	jmp    140004223 <__pformat_emit_efloat+0x31>
   14000421f:	83 45 fc 01          	add    DWORD PTR [rbp-0x4],0x1
   140004223:	8b 45 20             	mov    eax,DWORD PTR [rbp+0x20]
   140004226:	48 63 d0             	movsxd rdx,eax
   140004229:	48 69 d2 67 66 66 66 	imul   rdx,rdx,0x66666667
   140004230:	48 c1 ea 20          	shr    rdx,0x20
   140004234:	89 d1                	mov    ecx,edx
   140004236:	c1 f9 02             	sar    ecx,0x2
   140004239:	99                   	cdq
   14000423a:	89 c8                	mov    eax,ecx
   14000423c:	29 d0                	sub    eax,edx
   14000423e:	89 45 20             	mov    DWORD PTR [rbp+0x20],eax
   140004241:	83 7d 20 00          	cmp    DWORD PTR [rbp+0x20],0x0
   140004245:	75 d8                	jne    14000421f <__pformat_emit_efloat+0x2d>
   140004247:	48 8b 45 28          	mov    rax,QWORD PTR [rbp+0x28]
   14000424b:	8b 40 2c             	mov    eax,DWORD PTR [rax+0x2c]
   14000424e:	83 f8 ff             	cmp    eax,0xffffffff
   140004251:	75 0b                	jne    14000425e <__pformat_emit_efloat+0x6c>
   140004253:	48 8b 45 28          	mov    rax,QWORD PTR [rbp+0x28]
   140004257:	c7 40 2c 02 00 00 00 	mov    DWORD PTR [rax+0x2c],0x2
   14000425e:	48 8b 45 28          	mov    rax,QWORD PTR [rbp+0x28]
   140004262:	8b 40 2c             	mov    eax,DWORD PTR [rax+0x2c]
   140004265:	39 45 fc             	cmp    DWORD PTR [rbp-0x4],eax
   140004268:	7d 0a                	jge    140004274 <__pformat_emit_efloat+0x82>
   14000426a:	48 8b 45 28          	mov    rax,QWORD PTR [rbp+0x28]
   14000426e:	8b 40 2c             	mov    eax,DWORD PTR [rax+0x2c]
   140004271:	89 45 fc             	mov    DWORD PTR [rbp-0x4],eax
   140004274:	48 8b 45 28          	mov    rax,QWORD PTR [rbp+0x28]
   140004278:	8b 40 0c             	mov    eax,DWORD PTR [rax+0xc]
   14000427b:	83 45 fc 02          	add    DWORD PTR [rbp-0x4],0x2
   14000427f:	39 45 fc             	cmp    DWORD PTR [rbp-0x4],eax
   140004282:	7d 15                	jge    140004299 <__pformat_emit_efloat+0xa7>
   140004284:	48 8b 45 28          	mov    rax,QWORD PTR [rbp+0x28]
   140004288:	8b 40 0c             	mov    eax,DWORD PTR [rax+0xc]
   14000428b:	2b 45 fc             	sub    eax,DWORD PTR [rbp-0x4]
   14000428e:	89 c2                	mov    edx,eax
   140004290:	48 8b 45 28          	mov    rax,QWORD PTR [rbp+0x28]
   140004294:	89 50 0c             	mov    DWORD PTR [rax+0xc],edx
   140004297:	eb 0b                	jmp    1400042a4 <__pformat_emit_efloat+0xb2>
   140004299:	48 8b 45 28          	mov    rax,QWORD PTR [rbp+0x28]
   14000429d:	c7 40 0c ff ff ff ff 	mov    DWORD PTR [rax+0xc],0xffffffff
   1400042a4:	48 8b 4d 28          	mov    rcx,QWORD PTR [rbp+0x28]
   1400042a8:	48 8b 55 18          	mov    rdx,QWORD PTR [rbp+0x18]
   1400042ac:	8b 45 10             	mov    eax,DWORD PTR [rbp+0x10]
   1400042af:	49 89 c9             	mov    r9,rcx
   1400042b2:	41 b8 01 00 00 00    	mov    r8d,0x1
   1400042b8:	89 c1                	mov    ecx,eax
   1400042ba:	e8 69 fb ff ff       	call   140003e28 <__pformat_emit_float>
   1400042bf:	48 8b 45 28          	mov    rax,QWORD PTR [rbp+0x28]
   1400042c3:	8b 50 2c             	mov    edx,DWORD PTR [rax+0x2c]
   1400042c6:	48 8b 45 28          	mov    rax,QWORD PTR [rbp+0x28]
   1400042ca:	89 50 10             	mov    DWORD PTR [rax+0x10],edx
   1400042cd:	48 8b 45 28          	mov    rax,QWORD PTR [rbp+0x28]
   1400042d1:	8b 40 08             	mov    eax,DWORD PTR [rax+0x8]
   1400042d4:	0d c0 01 00 00       	or     eax,0x1c0
   1400042d9:	89 c2                	mov    edx,eax
   1400042db:	48 8b 45 28          	mov    rax,QWORD PTR [rbp+0x28]
   1400042df:	89 50 08             	mov    DWORD PTR [rax+0x8],edx
   1400042e2:	48 8b 45 28          	mov    rax,QWORD PTR [rbp+0x28]
   1400042e6:	8b 40 08             	mov    eax,DWORD PTR [rax+0x8]
   1400042e9:	83 e0 20             	and    eax,0x20
   1400042ec:	83 c8 45             	or     eax,0x45
   1400042ef:	89 c1                	mov    ecx,eax
   1400042f1:	48 8b 45 28          	mov    rax,QWORD PTR [rbp+0x28]
   1400042f5:	48 89 c2             	mov    rdx,rax
   1400042f8:	e8 63 eb ff ff       	call   140002e60 <__pformat_putc>
   1400042fd:	48 8b 45 28          	mov    rax,QWORD PTR [rbp+0x28]
   140004301:	8b 40 0c             	mov    eax,DWORD PTR [rax+0xc]
   140004304:	8b 55 fc             	mov    edx,DWORD PTR [rbp-0x4]
   140004307:	83 ea 01             	sub    edx,0x1
   14000430a:	01 c2                	add    edx,eax
   14000430c:	48 8b 45 28          	mov    rax,QWORD PTR [rbp+0x28]
   140004310:	89 50 0c             	mov    DWORD PTR [rax+0xc],edx
   140004313:	48 8b 45 e0          	mov    rax,QWORD PTR [rbp-0x20]
   140004317:	48 8b 55 e8          	mov    rdx,QWORD PTR [rbp-0x18]
   14000431b:	48 89 45 d0          	mov    QWORD PTR [rbp-0x30],rax
   14000431f:	48 89 55 d8          	mov    QWORD PTR [rbp-0x28],rdx
   140004323:	48 8b 55 28          	mov    rdx,QWORD PTR [rbp+0x28]
   140004327:	48 8d 45 d0          	lea    rax,[rbp-0x30]
   14000432b:	48 89 c1             	mov    rcx,rax
   14000432e:	e8 ab ef ff ff       	call   1400032de <__pformat_int>
   140004333:	90                   	nop
   140004334:	48 83 c4 50          	add    rsp,0x50
   140004338:	5d                   	pop    rbp
   140004339:	c3                   	ret

000000014000433a <__pformat_float>:
   14000433a:	55                   	push   rbp
   14000433b:	53                   	push   rbx
   14000433c:	48 83 ec 58          	sub    rsp,0x58
   140004340:	48 8d 6c 24 50       	lea    rbp,[rsp+0x50]
   140004345:	48 89 cb             	mov    rbx,rcx
   140004348:	db 2b                	fld    TBYTE PTR [rbx]
   14000434a:	db 7d e0             	fstp   TBYTE PTR [rbp-0x20]
   14000434d:	48 89 55 28          	mov    QWORD PTR [rbp+0x28],rdx
   140004351:	48 8b 45 28          	mov    rax,QWORD PTR [rbp+0x28]
   140004355:	8b 40 10             	mov    eax,DWORD PTR [rax+0x10]
   140004358:	85 c0                	test   eax,eax
   14000435a:	79 0b                	jns    140004367 <__pformat_float+0x2d>
   14000435c:	48 8b 45 28          	mov    rax,QWORD PTR [rbp+0x28]
   140004360:	c7 40 10 06 00 00 00 	mov    DWORD PTR [rax+0x10],0x6
   140004367:	48 8b 45 28          	mov    rax,QWORD PTR [rbp+0x28]
   14000436b:	8b 50 10             	mov    edx,DWORD PTR [rax+0x10]
   14000436e:	db 6d e0             	fld    TBYTE PTR [rbp-0x20]
   140004371:	db 7d d0             	fstp   TBYTE PTR [rbp-0x30]
   140004374:	4c 8d 45 f4          	lea    r8,[rbp-0xc]
   140004378:	48 8d 4d f0          	lea    rcx,[rbp-0x10]
   14000437c:	48 8d 45 d0          	lea    rax,[rbp-0x30]
   140004380:	4d 89 c1             	mov    r9,r8
   140004383:	49 89 c8             	mov    r8,rcx
   140004386:	48 89 c1             	mov    rcx,rax
   140004389:	e8 ab f7 ff ff       	call   140003b39 <__pformat_fcvt>
   14000438e:	48 89 45 f8          	mov    QWORD PTR [rbp-0x8],rax
   140004392:	8b 45 f0             	mov    eax,DWORD PTR [rbp-0x10]
   140004395:	3d 00 80 ff ff       	cmp    eax,0xffff8000
   14000439a:	75 17                	jne    1400043b3 <__pformat_float+0x79>
   14000439c:	8b 45 f4             	mov    eax,DWORD PTR [rbp-0xc]
   14000439f:	48 8b 4d 28          	mov    rcx,QWORD PTR [rbp+0x28]
   1400043a3:	48 8b 55 f8          	mov    rdx,QWORD PTR [rbp-0x8]
   1400043a7:	49 89 c8             	mov    r8,rcx
   1400043aa:	89 c1                	mov    ecx,eax
   1400043ac:	e8 8c f9 ff ff       	call   140003d3d <__pformat_emit_inf_or_nan>
   1400043b1:	eb 43                	jmp    1400043f6 <__pformat_float+0xbc>
   1400043b3:	8b 4d f0             	mov    ecx,DWORD PTR [rbp-0x10]
   1400043b6:	8b 45 f4             	mov    eax,DWORD PTR [rbp-0xc]
   1400043b9:	4c 8b 45 28          	mov    r8,QWORD PTR [rbp+0x28]
   1400043bd:	48 8b 55 f8          	mov    rdx,QWORD PTR [rbp-0x8]
   1400043c1:	4d 89 c1             	mov    r9,r8
   1400043c4:	41 89 c8             	mov    r8d,ecx
   1400043c7:	89 c1                	mov    ecx,eax
   1400043c9:	e8 5a fa ff ff       	call   140003e28 <__pformat_emit_float>
   1400043ce:	eb 11                	jmp    1400043e1 <__pformat_float+0xa7>
   1400043d0:	48 8b 45 28          	mov    rax,QWORD PTR [rbp+0x28]
   1400043d4:	48 89 c2             	mov    rdx,rax
   1400043d7:	b9 20 00 00 00       	mov    ecx,0x20
   1400043dc:	e8 7f ea ff ff       	call   140002e60 <__pformat_putc>
   1400043e1:	48 8b 45 28          	mov    rax,QWORD PTR [rbp+0x28]
   1400043e5:	8b 40 0c             	mov    eax,DWORD PTR [rax+0xc]
   1400043e8:	8d 48 ff             	lea    ecx,[rax-0x1]
   1400043eb:	48 8b 55 28          	mov    rdx,QWORD PTR [rbp+0x28]
   1400043ef:	89 4a 0c             	mov    DWORD PTR [rdx+0xc],ecx
   1400043f2:	85 c0                	test   eax,eax
   1400043f4:	7f da                	jg     1400043d0 <__pformat_float+0x96>
   1400043f6:	48 8b 45 f8          	mov    rax,QWORD PTR [rbp-0x8]
   1400043fa:	48 89 c1             	mov    rcx,rax
   1400043fd:	e8 1d 17 00 00       	call   140005b1f <__freedtoa>
   140004402:	90                   	nop
   140004403:	48 83 c4 58          	add    rsp,0x58
   140004407:	5b                   	pop    rbx
   140004408:	5d                   	pop    rbp
   140004409:	c3                   	ret

000000014000440a <__pformat_efloat>:
   14000440a:	55                   	push   rbp
   14000440b:	53                   	push   rbx
   14000440c:	48 83 ec 58          	sub    rsp,0x58
   140004410:	48 8d 6c 24 50       	lea    rbp,[rsp+0x50]
   140004415:	48 89 cb             	mov    rbx,rcx
   140004418:	db 2b                	fld    TBYTE PTR [rbx]
   14000441a:	db 7d e0             	fstp   TBYTE PTR [rbp-0x20]
   14000441d:	48 89 55 28          	mov    QWORD PTR [rbp+0x28],rdx
   140004421:	48 8b 45 28          	mov    rax,QWORD PTR [rbp+0x28]
   140004425:	8b 40 10             	mov    eax,DWORD PTR [rax+0x10]
   140004428:	85 c0                	test   eax,eax
   14000442a:	79 0b                	jns    140004437 <__pformat_efloat+0x2d>
   14000442c:	48 8b 45 28          	mov    rax,QWORD PTR [rbp+0x28]
   140004430:	c7 40 10 06 00 00 00 	mov    DWORD PTR [rax+0x10],0x6
   140004437:	48 8b 45 28          	mov    rax,QWORD PTR [rbp+0x28]
   14000443b:	8b 40 10             	mov    eax,DWORD PTR [rax+0x10]
   14000443e:	8d 50 01             	lea    edx,[rax+0x1]
   140004441:	db 6d e0             	fld    TBYTE PTR [rbp-0x20]
   140004444:	db 7d d0             	fstp   TBYTE PTR [rbp-0x30]
   140004447:	4c 8d 45 f4          	lea    r8,[rbp-0xc]
   14000444b:	48 8d 4d f0          	lea    rcx,[rbp-0x10]
   14000444f:	48 8d 45 d0          	lea    rax,[rbp-0x30]
   140004453:	4d 89 c1             	mov    r9,r8
   140004456:	49 89 c8             	mov    r8,rcx
   140004459:	48 89 c1             	mov    rcx,rax
   14000445c:	e8 86 f6 ff ff       	call   140003ae7 <__pformat_ecvt>
   140004461:	48 89 45 f8          	mov    QWORD PTR [rbp-0x8],rax
   140004465:	8b 45 f0             	mov    eax,DWORD PTR [rbp-0x10]
   140004468:	3d 00 80 ff ff       	cmp    eax,0xffff8000
   14000446d:	75 17                	jne    140004486 <__pformat_efloat+0x7c>
   14000446f:	8b 45 f4             	mov    eax,DWORD PTR [rbp-0xc]
   140004472:	48 8b 4d 28          	mov    rcx,QWORD PTR [rbp+0x28]
   140004476:	48 8b 55 f8          	mov    rdx,QWORD PTR [rbp-0x8]
   14000447a:	49 89 c8             	mov    r8,rcx
   14000447d:	89 c1                	mov    ecx,eax
   14000447f:	e8 b9 f8 ff ff       	call   140003d3d <__pformat_emit_inf_or_nan>
   140004484:	eb 1b                	jmp    1400044a1 <__pformat_efloat+0x97>
   140004486:	8b 4d f0             	mov    ecx,DWORD PTR [rbp-0x10]
   140004489:	8b 45 f4             	mov    eax,DWORD PTR [rbp-0xc]
   14000448c:	4c 8b 45 28          	mov    r8,QWORD PTR [rbp+0x28]
   140004490:	48 8b 55 f8          	mov    rdx,QWORD PTR [rbp-0x8]
   140004494:	4d 89 c1             	mov    r9,r8
   140004497:	41 89 c8             	mov    r8d,ecx
   14000449a:	89 c1                	mov    ecx,eax
   14000449c:	e8 51 fd ff ff       	call   1400041f2 <__pformat_emit_efloat>
   1400044a1:	48 8b 45 f8          	mov    rax,QWORD PTR [rbp-0x8]
   1400044a5:	48 89 c1             	mov    rcx,rax
   1400044a8:	e8 72 16 00 00       	call   140005b1f <__freedtoa>
   1400044ad:	90                   	nop
   1400044ae:	48 83 c4 58          	add    rsp,0x58
   1400044b2:	5b                   	pop    rbx
   1400044b3:	5d                   	pop    rbp
   1400044b4:	c3                   	ret

00000001400044b5 <__pformat_gfloat>:
   1400044b5:	55                   	push   rbp
   1400044b6:	53                   	push   rbx
   1400044b7:	48 83 ec 58          	sub    rsp,0x58
   1400044bb:	48 8d 6c 24 50       	lea    rbp,[rsp+0x50]
   1400044c0:	48 89 cb             	mov    rbx,rcx
